
LIN_bus_stm32f4.elf:     file format elf32-littlearm

Sections:
Idx Name          Size      VMA       LMA       File off  Algn
  0 .isr_vector   00000188  08000000  08000000  00010000  2**0
                  CONTENTS, ALLOC, LOAD, READONLY, DATA
  1 .text         00003d7c  08000188  08000188  00010188  2**2
                  CONTENTS, ALLOC, LOAD, READONLY, CODE
  2 .rodata       00000020  08003f04  08003f04  00013f04  2**0
                  CONTENTS, ALLOC, LOAD, READONLY, DATA
  3 .ARM.extab    00000000  08003f24  08003f24  0002007c  2**0
                  CONTENTS
  4 .ARM          00000008  08003f24  08003f24  00013f24  2**2
                  CONTENTS, ALLOC, LOAD, READONLY, DATA
  5 .preinit_array 00000000  08003f2c  08003f2c  0002007c  2**0
                  CONTENTS, ALLOC, LOAD, DATA
  6 .init_array   00000004  08003f2c  08003f2c  00013f2c  2**2
                  CONTENTS, ALLOC, LOAD, DATA
  7 .fini_array   00000004  08003f30  08003f30  00013f30  2**2
                  CONTENTS, ALLOC, LOAD, DATA
  8 .data         0000007c  20000000  08003f34  00020000  2**2
                  CONTENTS, ALLOC, LOAD, DATA
  9 .ccmram       00000000  10000000  10000000  0002007c  2**0
                  CONTENTS
 10 .bss          00000940  2000007c  2000007c  0002007c  2**2
                  ALLOC
 11 ._user_heap_stack 00000604  200009bc  200009bc  0002007c  2**0
                  ALLOC
 12 .ARM.attributes 00000030  00000000  00000000  0002007c  2**0
                  CONTENTS, READONLY
 13 .comment      00000043  00000000  00000000  000200ac  2**0
                  CONTENTS, READONLY
 14 .debug_frame  00000404  00000000  00000000  000200f0  2**2
                  CONTENTS, READONLY, DEBUGGING, OCTETS

Disassembly of section .text:

08000188 <__do_global_dtors_aux>:
 8000188:	b510      	push	{r4, lr}
 800018a:	4c05      	ldr	r4, [pc, #20]	; (80001a0 <__do_global_dtors_aux+0x18>)
 800018c:	7823      	ldrb	r3, [r4, #0]
 800018e:	b933      	cbnz	r3, 800019e <__do_global_dtors_aux+0x16>
 8000190:	4b04      	ldr	r3, [pc, #16]	; (80001a4 <__do_global_dtors_aux+0x1c>)
 8000192:	b113      	cbz	r3, 800019a <__do_global_dtors_aux+0x12>
 8000194:	4804      	ldr	r0, [pc, #16]	; (80001a8 <__do_global_dtors_aux+0x20>)
 8000196:	f3af 8000 	nop.w
 800019a:	2301      	movs	r3, #1
 800019c:	7023      	strb	r3, [r4, #0]
 800019e:	bd10      	pop	{r4, pc}
 80001a0:	2000007c 	.word	0x2000007c
 80001a4:	00000000 	.word	0x00000000
 80001a8:	08003eec 	.word	0x08003eec

080001ac <frame_dummy>:
 80001ac:	b508      	push	{r3, lr}
 80001ae:	4b03      	ldr	r3, [pc, #12]	; (80001bc <frame_dummy+0x10>)
 80001b0:	b11b      	cbz	r3, 80001ba <frame_dummy+0xe>
 80001b2:	4903      	ldr	r1, [pc, #12]	; (80001c0 <frame_dummy+0x14>)
 80001b4:	4803      	ldr	r0, [pc, #12]	; (80001c4 <frame_dummy+0x18>)
 80001b6:	f3af 8000 	nop.w
 80001ba:	bd08      	pop	{r3, pc}
 80001bc:	00000000 	.word	0x00000000
 80001c0:	20000080 	.word	0x20000080
 80001c4:	08003eec 	.word	0x08003eec

080001c8 <__aeabi_uldivmod>:
 80001c8:	b953      	cbnz	r3, 80001e0 <__aeabi_uldivmod+0x18>
 80001ca:	b94a      	cbnz	r2, 80001e0 <__aeabi_uldivmod+0x18>
 80001cc:	2900      	cmp	r1, #0
 80001ce:	bf08      	it	eq
 80001d0:	2800      	cmpeq	r0, #0
 80001d2:	bf1c      	itt	ne
 80001d4:	f04f 31ff 	movne.w	r1, #4294967295
 80001d8:	f04f 30ff 	movne.w	r0, #4294967295
 80001dc:	f000 b970 	b.w	80004c0 <__aeabi_idiv0>
 80001e0:	f1ad 0c08 	sub.w	ip, sp, #8
 80001e4:	e96d ce04 	strd	ip, lr, [sp, #-16]!
 80001e8:	f000 f806 	bl	80001f8 <__udivmoddi4>
 80001ec:	f8dd e004 	ldr.w	lr, [sp, #4]
 80001f0:	e9dd 2302 	ldrd	r2, r3, [sp, #8]
 80001f4:	b004      	add	sp, #16
 80001f6:	4770      	bx	lr

080001f8 <__udivmoddi4>:
 80001f8:	e92d 47f0 	stmdb	sp!, {r4, r5, r6, r7, r8, r9, sl, lr}
 80001fc:	9e08      	ldr	r6, [sp, #32]
 80001fe:	460d      	mov	r5, r1
 8000200:	4604      	mov	r4, r0
 8000202:	460f      	mov	r7, r1
 8000204:	2b00      	cmp	r3, #0
 8000206:	d14a      	bne.n	800029e <__udivmoddi4+0xa6>
 8000208:	428a      	cmp	r2, r1
 800020a:	4694      	mov	ip, r2
 800020c:	d965      	bls.n	80002da <__udivmoddi4+0xe2>
 800020e:	fab2 f382 	clz	r3, r2
 8000212:	b143      	cbz	r3, 8000226 <__udivmoddi4+0x2e>
 8000214:	fa02 fc03 	lsl.w	ip, r2, r3
 8000218:	f1c3 0220 	rsb	r2, r3, #32
 800021c:	409f      	lsls	r7, r3
 800021e:	fa20 f202 	lsr.w	r2, r0, r2
 8000222:	4317      	orrs	r7, r2
 8000224:	409c      	lsls	r4, r3
 8000226:	ea4f 4e1c 	mov.w	lr, ip, lsr #16
 800022a:	fa1f f58c 	uxth.w	r5, ip
 800022e:	fbb7 f1fe 	udiv	r1, r7, lr
 8000232:	0c22      	lsrs	r2, r4, #16
 8000234:	fb0e 7711 	mls	r7, lr, r1, r7
 8000238:	ea42 4207 	orr.w	r2, r2, r7, lsl #16
 800023c:	fb01 f005 	mul.w	r0, r1, r5
 8000240:	4290      	cmp	r0, r2
 8000242:	d90a      	bls.n	800025a <__udivmoddi4+0x62>
 8000244:	eb1c 0202 	adds.w	r2, ip, r2
 8000248:	f101 37ff 	add.w	r7, r1, #4294967295
 800024c:	f080 811c 	bcs.w	8000488 <__udivmoddi4+0x290>
 8000250:	4290      	cmp	r0, r2
 8000252:	f240 8119 	bls.w	8000488 <__udivmoddi4+0x290>
 8000256:	3902      	subs	r1, #2
 8000258:	4462      	add	r2, ip
 800025a:	1a12      	subs	r2, r2, r0
 800025c:	b2a4      	uxth	r4, r4
 800025e:	fbb2 f0fe 	udiv	r0, r2, lr
 8000262:	fb0e 2210 	mls	r2, lr, r0, r2
 8000266:	ea44 4402 	orr.w	r4, r4, r2, lsl #16
 800026a:	fb00 f505 	mul.w	r5, r0, r5
 800026e:	42a5      	cmp	r5, r4
 8000270:	d90a      	bls.n	8000288 <__udivmoddi4+0x90>
 8000272:	eb1c 0404 	adds.w	r4, ip, r4
 8000276:	f100 32ff 	add.w	r2, r0, #4294967295
 800027a:	f080 8107 	bcs.w	800048c <__udivmoddi4+0x294>
 800027e:	42a5      	cmp	r5, r4
 8000280:	f240 8104 	bls.w	800048c <__udivmoddi4+0x294>
 8000284:	4464      	add	r4, ip
 8000286:	3802      	subs	r0, #2
 8000288:	ea40 4001 	orr.w	r0, r0, r1, lsl #16
 800028c:	1b64      	subs	r4, r4, r5
 800028e:	2100      	movs	r1, #0
 8000290:	b11e      	cbz	r6, 800029a <__udivmoddi4+0xa2>
 8000292:	40dc      	lsrs	r4, r3
 8000294:	2300      	movs	r3, #0
 8000296:	e9c6 4300 	strd	r4, r3, [r6]
 800029a:	e8bd 87f0 	ldmia.w	sp!, {r4, r5, r6, r7, r8, r9, sl, pc}
 800029e:	428b      	cmp	r3, r1
 80002a0:	d908      	bls.n	80002b4 <__udivmoddi4+0xbc>
 80002a2:	2e00      	cmp	r6, #0
 80002a4:	f000 80ed 	beq.w	8000482 <__udivmoddi4+0x28a>
 80002a8:	2100      	movs	r1, #0
 80002aa:	e9c6 0500 	strd	r0, r5, [r6]
 80002ae:	4608      	mov	r0, r1
 80002b0:	e8bd 87f0 	ldmia.w	sp!, {r4, r5, r6, r7, r8, r9, sl, pc}
 80002b4:	fab3 f183 	clz	r1, r3
 80002b8:	2900      	cmp	r1, #0
 80002ba:	d149      	bne.n	8000350 <__udivmoddi4+0x158>
 80002bc:	42ab      	cmp	r3, r5
 80002be:	d302      	bcc.n	80002c6 <__udivmoddi4+0xce>
 80002c0:	4282      	cmp	r2, r0
 80002c2:	f200 80f8 	bhi.w	80004b6 <__udivmoddi4+0x2be>
 80002c6:	1a84      	subs	r4, r0, r2
 80002c8:	eb65 0203 	sbc.w	r2, r5, r3
 80002cc:	2001      	movs	r0, #1
 80002ce:	4617      	mov	r7, r2
 80002d0:	2e00      	cmp	r6, #0
 80002d2:	d0e2      	beq.n	800029a <__udivmoddi4+0xa2>
 80002d4:	e9c6 4700 	strd	r4, r7, [r6]
 80002d8:	e7df      	b.n	800029a <__udivmoddi4+0xa2>
 80002da:	b902      	cbnz	r2, 80002de <__udivmoddi4+0xe6>
 80002dc:	deff      	udf	#255	; 0xff
 80002de:	fab2 f382 	clz	r3, r2
 80002e2:	2b00      	cmp	r3, #0
 80002e4:	f040 8090 	bne.w	8000408 <__udivmoddi4+0x210>
 80002e8:	1a8a      	subs	r2, r1, r2
 80002ea:	ea4f 471c 	mov.w	r7, ip, lsr #16
 80002ee:	fa1f fe8c 	uxth.w	lr, ip
 80002f2:	2101      	movs	r1, #1
 80002f4:	fbb2 f5f7 	udiv	r5, r2, r7
 80002f8:	fb07 2015 	mls	r0, r7, r5, r2
 80002fc:	0c22      	lsrs	r2, r4, #16
 80002fe:	ea42 4200 	orr.w	r2, r2, r0, lsl #16
 8000302:	fb0e f005 	mul.w	r0, lr, r5
 8000306:	4290      	cmp	r0, r2
 8000308:	d908      	bls.n	800031c <__udivmoddi4+0x124>
 800030a:	eb1c 0202 	adds.w	r2, ip, r2
 800030e:	f105 38ff 	add.w	r8, r5, #4294967295
 8000312:	d202      	bcs.n	800031a <__udivmoddi4+0x122>
 8000314:	4290      	cmp	r0, r2
 8000316:	f200 80cb 	bhi.w	80004b0 <__udivmoddi4+0x2b8>
 800031a:	4645      	mov	r5, r8
 800031c:	1a12      	subs	r2, r2, r0
 800031e:	b2a4      	uxth	r4, r4
 8000320:	fbb2 f0f7 	udiv	r0, r2, r7
 8000324:	fb07 2210 	mls	r2, r7, r0, r2
 8000328:	ea44 4402 	orr.w	r4, r4, r2, lsl #16
 800032c:	fb0e fe00 	mul.w	lr, lr, r0
 8000330:	45a6      	cmp	lr, r4
 8000332:	d908      	bls.n	8000346 <__udivmoddi4+0x14e>
 8000334:	eb1c 0404 	adds.w	r4, ip, r4
 8000338:	f100 32ff 	add.w	r2, r0, #4294967295
 800033c:	d202      	bcs.n	8000344 <__udivmoddi4+0x14c>
 800033e:	45a6      	cmp	lr, r4
 8000340:	f200 80bb 	bhi.w	80004ba <__udivmoddi4+0x2c2>
 8000344:	4610      	mov	r0, r2
 8000346:	eba4 040e 	sub.w	r4, r4, lr
 800034a:	ea40 4005 	orr.w	r0, r0, r5, lsl #16
 800034e:	e79f      	b.n	8000290 <__udivmoddi4+0x98>
 8000350:	f1c1 0720 	rsb	r7, r1, #32
 8000354:	408b      	lsls	r3, r1
 8000356:	fa22 fc07 	lsr.w	ip, r2, r7
 800035a:	ea4c 0c03 	orr.w	ip, ip, r3
 800035e:	fa05 f401 	lsl.w	r4, r5, r1
 8000362:	fa20 f307 	lsr.w	r3, r0, r7
 8000366:	40fd      	lsrs	r5, r7
 8000368:	ea4f 491c 	mov.w	r9, ip, lsr #16
 800036c:	4323      	orrs	r3, r4
 800036e:	fbb5 f8f9 	udiv	r8, r5, r9
 8000372:	fa1f fe8c 	uxth.w	lr, ip
 8000376:	fb09 5518 	mls	r5, r9, r8, r5
 800037a:	0c1c      	lsrs	r4, r3, #16
 800037c:	ea44 4405 	orr.w	r4, r4, r5, lsl #16
 8000380:	fb08 f50e 	mul.w	r5, r8, lr
 8000384:	42a5      	cmp	r5, r4
 8000386:	fa02 f201 	lsl.w	r2, r2, r1
 800038a:	fa00 f001 	lsl.w	r0, r0, r1
 800038e:	d90b      	bls.n	80003a8 <__udivmoddi4+0x1b0>
 8000390:	eb1c 0404 	adds.w	r4, ip, r4
 8000394:	f108 3aff 	add.w	sl, r8, #4294967295
 8000398:	f080 8088 	bcs.w	80004ac <__udivmoddi4+0x2b4>
 800039c:	42a5      	cmp	r5, r4
 800039e:	f240 8085 	bls.w	80004ac <__udivmoddi4+0x2b4>
 80003a2:	f1a8 0802 	sub.w	r8, r8, #2
 80003a6:	4464      	add	r4, ip
 80003a8:	1b64      	subs	r4, r4, r5
 80003aa:	b29d      	uxth	r5, r3
 80003ac:	fbb4 f3f9 	udiv	r3, r4, r9
 80003b0:	fb09 4413 	mls	r4, r9, r3, r4
 80003b4:	ea45 4404 	orr.w	r4, r5, r4, lsl #16
 80003b8:	fb03 fe0e 	mul.w	lr, r3, lr
 80003bc:	45a6      	cmp	lr, r4
 80003be:	d908      	bls.n	80003d2 <__udivmoddi4+0x1da>
 80003c0:	eb1c 0404 	adds.w	r4, ip, r4
 80003c4:	f103 35ff 	add.w	r5, r3, #4294967295
 80003c8:	d26c      	bcs.n	80004a4 <__udivmoddi4+0x2ac>
 80003ca:	45a6      	cmp	lr, r4
 80003cc:	d96a      	bls.n	80004a4 <__udivmoddi4+0x2ac>
 80003ce:	3b02      	subs	r3, #2
 80003d0:	4464      	add	r4, ip
 80003d2:	ea43 4308 	orr.w	r3, r3, r8, lsl #16
 80003d6:	fba3 9502 	umull	r9, r5, r3, r2
 80003da:	eba4 040e 	sub.w	r4, r4, lr
 80003de:	42ac      	cmp	r4, r5
 80003e0:	46c8      	mov	r8, r9
 80003e2:	46ae      	mov	lr, r5
 80003e4:	d356      	bcc.n	8000494 <__udivmoddi4+0x29c>
 80003e6:	d053      	beq.n	8000490 <__udivmoddi4+0x298>
 80003e8:	b156      	cbz	r6, 8000400 <__udivmoddi4+0x208>
 80003ea:	ebb0 0208 	subs.w	r2, r0, r8
 80003ee:	eb64 040e 	sbc.w	r4, r4, lr
 80003f2:	fa04 f707 	lsl.w	r7, r4, r7
 80003f6:	40ca      	lsrs	r2, r1
 80003f8:	40cc      	lsrs	r4, r1
 80003fa:	4317      	orrs	r7, r2
 80003fc:	e9c6 7400 	strd	r7, r4, [r6]
 8000400:	4618      	mov	r0, r3
 8000402:	2100      	movs	r1, #0
 8000404:	e8bd 87f0 	ldmia.w	sp!, {r4, r5, r6, r7, r8, r9, sl, pc}
 8000408:	f1c3 0120 	rsb	r1, r3, #32
 800040c:	fa02 fc03 	lsl.w	ip, r2, r3
 8000410:	fa20 f201 	lsr.w	r2, r0, r1
 8000414:	fa25 f101 	lsr.w	r1, r5, r1
 8000418:	409d      	lsls	r5, r3
 800041a:	432a      	orrs	r2, r5
 800041c:	ea4f 471c 	mov.w	r7, ip, lsr #16
 8000420:	fa1f fe8c 	uxth.w	lr, ip
 8000424:	fbb1 f0f7 	udiv	r0, r1, r7
 8000428:	fb07 1510 	mls	r5, r7, r0, r1
 800042c:	0c11      	lsrs	r1, r2, #16
 800042e:	ea41 4105 	orr.w	r1, r1, r5, lsl #16
 8000432:	fb00 f50e 	mul.w	r5, r0, lr
 8000436:	428d      	cmp	r5, r1
 8000438:	fa04 f403 	lsl.w	r4, r4, r3
 800043c:	d908      	bls.n	8000450 <__udivmoddi4+0x258>
 800043e:	eb1c 0101 	adds.w	r1, ip, r1
 8000442:	f100 38ff 	add.w	r8, r0, #4294967295
 8000446:	d22f      	bcs.n	80004a8 <__udivmoddi4+0x2b0>
 8000448:	428d      	cmp	r5, r1
 800044a:	d92d      	bls.n	80004a8 <__udivmoddi4+0x2b0>
 800044c:	3802      	subs	r0, #2
 800044e:	4461      	add	r1, ip
 8000450:	1b49      	subs	r1, r1, r5
 8000452:	b292      	uxth	r2, r2
 8000454:	fbb1 f5f7 	udiv	r5, r1, r7
 8000458:	fb07 1115 	mls	r1, r7, r5, r1
 800045c:	ea42 4201 	orr.w	r2, r2, r1, lsl #16
 8000460:	fb05 f10e 	mul.w	r1, r5, lr
 8000464:	4291      	cmp	r1, r2
 8000466:	d908      	bls.n	800047a <__udivmoddi4+0x282>
 8000468:	eb1c 0202 	adds.w	r2, ip, r2
 800046c:	f105 38ff 	add.w	r8, r5, #4294967295
 8000470:	d216      	bcs.n	80004a0 <__udivmoddi4+0x2a8>
 8000472:	4291      	cmp	r1, r2
 8000474:	d914      	bls.n	80004a0 <__udivmoddi4+0x2a8>
 8000476:	3d02      	subs	r5, #2
 8000478:	4462      	add	r2, ip
 800047a:	1a52      	subs	r2, r2, r1
 800047c:	ea45 4100 	orr.w	r1, r5, r0, lsl #16
 8000480:	e738      	b.n	80002f4 <__udivmoddi4+0xfc>
 8000482:	4631      	mov	r1, r6
 8000484:	4630      	mov	r0, r6
 8000486:	e708      	b.n	800029a <__udivmoddi4+0xa2>
 8000488:	4639      	mov	r1, r7
 800048a:	e6e6      	b.n	800025a <__udivmoddi4+0x62>
 800048c:	4610      	mov	r0, r2
 800048e:	e6fb      	b.n	8000288 <__udivmoddi4+0x90>
 8000490:	4548      	cmp	r0, r9
 8000492:	d2a9      	bcs.n	80003e8 <__udivmoddi4+0x1f0>
 8000494:	ebb9 0802 	subs.w	r8, r9, r2
 8000498:	eb65 0e0c 	sbc.w	lr, r5, ip
 800049c:	3b01      	subs	r3, #1
 800049e:	e7a3      	b.n	80003e8 <__udivmoddi4+0x1f0>
 80004a0:	4645      	mov	r5, r8
 80004a2:	e7ea      	b.n	800047a <__udivmoddi4+0x282>
 80004a4:	462b      	mov	r3, r5
 80004a6:	e794      	b.n	80003d2 <__udivmoddi4+0x1da>
 80004a8:	4640      	mov	r0, r8
 80004aa:	e7d1      	b.n	8000450 <__udivmoddi4+0x258>
 80004ac:	46d0      	mov	r8, sl
 80004ae:	e77b      	b.n	80003a8 <__udivmoddi4+0x1b0>
 80004b0:	3d02      	subs	r5, #2
 80004b2:	4462      	add	r2, ip
 80004b4:	e732      	b.n	800031c <__udivmoddi4+0x124>
 80004b6:	4608      	mov	r0, r1
 80004b8:	e70a      	b.n	80002d0 <__udivmoddi4+0xd8>
 80004ba:	4464      	add	r4, ip
 80004bc:	3802      	subs	r0, #2
 80004be:	e742      	b.n	8000346 <__udivmoddi4+0x14e>

080004c0 <__aeabi_idiv0>:
 80004c0:	4770      	bx	lr
 80004c2:	bf00      	nop

080004c4 <SystemClock_Config>:
 80004c4:	b510      	push	{r4, lr}
 80004c6:	b094      	sub	sp, #80	; 0x50
 80004c8:	2210      	movs	r2, #16
 80004ca:	2100      	movs	r1, #0
 80004cc:	a80a      	add	r0, sp, #40	; 0x28
 80004ce:	f003 fc7d 	bl	8003dcc <memset>
 80004d2:	2214      	movs	r2, #20
 80004d4:	2100      	movs	r1, #0
 80004d6:	a803      	add	r0, sp, #12
 80004d8:	f003 fc78 	bl	8003dcc <memset>
 80004dc:	4b20      	ldr	r3, [pc, #128]	; (8000560 <SystemClock_Config+0x9c>)
 80004de:	2100      	movs	r1, #0
 80004e0:	9101      	str	r1, [sp, #4]
 80004e2:	6c1a      	ldr	r2, [r3, #64]	; 0x40
 80004e4:	f042 5280 	orr.w	r2, r2, #268435456	; 0x10000000
 80004e8:	641a      	str	r2, [r3, #64]	; 0x40
 80004ea:	6c1b      	ldr	r3, [r3, #64]	; 0x40
 80004ec:	f003 5380 	and.w	r3, r3, #268435456	; 0x10000000
 80004f0:	9301      	str	r3, [sp, #4]
 80004f2:	9b01      	ldr	r3, [sp, #4]
 80004f4:	4b1b      	ldr	r3, [pc, #108]	; (8000564 <SystemClock_Config+0xa0>)
 80004f6:	9102      	str	r1, [sp, #8]
 80004f8:	681a      	ldr	r2, [r3, #0]
 80004fa:	f442 4280 	orr.w	r2, r2, #16384	; 0x4000
 80004fe:	601a      	str	r2, [r3, #0]
 8000500:	681b      	ldr	r3, [r3, #0]
 8000502:	f403 4380 	and.w	r3, r3, #16384	; 0x4000
 8000506:	9302      	str	r3, [sp, #8]
 8000508:	9b02      	ldr	r3, [sp, #8]
 800050a:	2101      	movs	r1, #1
 800050c:	f44f 3380 	mov.w	r3, #65536	; 0x10000
 8000510:	2402      	movs	r4, #2
 8000512:	e9cd 1308 	strd	r1, r3, [sp, #32]
 8000516:	f44f 0380 	mov.w	r3, #4194304	; 0x400000
 800051a:	2008      	movs	r0, #8
 800051c:	e9cd 430e 	strd	r4, r3, [sp, #56]	; 0x38
 8000520:	f44f 73a8 	mov.w	r3, #336	; 0x150
 8000524:	e9cd 0310 	strd	r0, r3, [sp, #64]	; 0x40
 8000528:	2307      	movs	r3, #7
 800052a:	a808      	add	r0, sp, #32
 800052c:	9412      	str	r4, [sp, #72]	; 0x48
 800052e:	9313      	str	r3, [sp, #76]	; 0x4c
 8000530:	f001 fb7a 	bl	8001c28 <HAL_RCC_OscConfig>
 8000534:	b108      	cbz	r0, 800053a <SystemClock_Config+0x76>
 8000536:	b672      	cpsid	i
 8000538:	e7fe      	b.n	8000538 <SystemClock_Config+0x74>
 800053a:	230f      	movs	r3, #15
 800053c:	e9cd 3403 	strd	r3, r4, [sp, #12]
 8000540:	9005      	str	r0, [sp, #20]
 8000542:	f44f 52a0 	mov.w	r2, #5120	; 0x1400
 8000546:	f44f 5380 	mov.w	r3, #4096	; 0x1000
 800054a:	2105      	movs	r1, #5
 800054c:	a803      	add	r0, sp, #12
 800054e:	e9cd 2306 	strd	r2, r3, [sp, #24]
 8000552:	f001 fd43 	bl	8001fdc <HAL_RCC_ClockConfig>
 8000556:	b108      	cbz	r0, 800055c <SystemClock_Config+0x98>
 8000558:	b672      	cpsid	i
 800055a:	e7fe      	b.n	800055a <SystemClock_Config+0x96>
 800055c:	b014      	add	sp, #80	; 0x50
 800055e:	bd10      	pop	{r4, pc}
 8000560:	40023800 	.word	0x40023800
 8000564:	40007000 	.word	0x40007000

08000568 <main>:
 8000568:	b580      	push	{r7, lr}
 800056a:	b08c      	sub	sp, #48	; 0x30
 800056c:	f000 fa86 	bl	8000a7c <HAL_Init>
 8000570:	f7ff ffa8 	bl	80004c4 <SystemClock_Config>
 8000574:	2214      	movs	r2, #20
 8000576:	2100      	movs	r1, #0
 8000578:	a807      	add	r0, sp, #28
 800057a:	f003 fc27 	bl	8003dcc <memset>
 800057e:	2400      	movs	r4, #0
 8000580:	4b77      	ldr	r3, [pc, #476]	; (8000760 <main+0x1f8>)
 8000582:	9401      	str	r4, [sp, #4]
 8000584:	6b1a      	ldr	r2, [r3, #48]	; 0x30
 8000586:	4877      	ldr	r0, [pc, #476]	; (8000764 <main+0x1fc>)
 8000588:	f042 0210 	orr.w	r2, r2, #16
 800058c:	631a      	str	r2, [r3, #48]	; 0x30
 800058e:	6b1a      	ldr	r2, [r3, #48]	; 0x30
 8000590:	f002 0210 	and.w	r2, r2, #16
 8000594:	9201      	str	r2, [sp, #4]
 8000596:	9a01      	ldr	r2, [sp, #4]
 8000598:	9402      	str	r4, [sp, #8]
 800059a:	6b1a      	ldr	r2, [r3, #48]	; 0x30
 800059c:	f042 0204 	orr.w	r2, r2, #4
 80005a0:	631a      	str	r2, [r3, #48]	; 0x30
 80005a2:	6b1a      	ldr	r2, [r3, #48]	; 0x30
 80005a4:	f002 0204 	and.w	r2, r2, #4
 80005a8:	9202      	str	r2, [sp, #8]
 80005aa:	9a02      	ldr	r2, [sp, #8]
 80005ac:	9403      	str	r4, [sp, #12]
 80005ae:	6b1a      	ldr	r2, [r3, #48]	; 0x30
 80005b0:	f042 0280 	orr.w	r2, r2, #128	; 0x80
 80005b4:	631a      	str	r2, [r3, #48]	; 0x30
 80005b6:	6b1a      	ldr	r2, [r3, #48]	; 0x30
 80005b8:	f002 0280 	and.w	r2, r2, #128	; 0x80
 80005bc:	9203      	str	r2, [sp, #12]
 80005be:	9a03      	ldr	r2, [sp, #12]
 80005c0:	9404      	str	r4, [sp, #16]
 80005c2:	6b1a      	ldr	r2, [r3, #48]	; 0x30
 80005c4:	f042 0201 	orr.w	r2, r2, #1
 80005c8:	631a      	str	r2, [r3, #48]	; 0x30
 80005ca:	6b1a      	ldr	r2, [r3, #48]	; 0x30
 80005cc:	f002 0201 	and.w	r2, r2, #1
 80005d0:	9204      	str	r2, [sp, #16]
 80005d2:	9a04      	ldr	r2, [sp, #16]
 80005d4:	9405      	str	r4, [sp, #20]
 80005d6:	6b1a      	ldr	r2, [r3, #48]	; 0x30
 80005d8:	f042 0202 	orr.w	r2, r2, #2
 80005dc:	631a      	str	r2, [r3, #48]	; 0x30
 80005de:	6b1a      	ldr	r2, [r3, #48]	; 0x30
 80005e0:	f002 0202 	and.w	r2, r2, #2
 80005e4:	9205      	str	r2, [sp, #20]
 80005e6:	9a05      	ldr	r2, [sp, #20]
 80005e8:	9406      	str	r4, [sp, #24]
 80005ea:	6b1a      	ldr	r2, [r3, #48]	; 0x30
 80005ec:	f042 0208 	orr.w	r2, r2, #8
 80005f0:	631a      	str	r2, [r3, #48]	; 0x30
 80005f2:	6b1b      	ldr	r3, [r3, #48]	; 0x30
 80005f4:	f003 0308 	and.w	r3, r3, #8
 80005f8:	9306      	str	r3, [sp, #24]
 80005fa:	4622      	mov	r2, r4
 80005fc:	2108      	movs	r1, #8
 80005fe:	9b06      	ldr	r3, [sp, #24]
 8000600:	f000 fbbc 	bl	8000d7c <HAL_GPIO_WritePin>
 8000604:	2201      	movs	r2, #1
 8000606:	4611      	mov	r1, r2
 8000608:	4857      	ldr	r0, [pc, #348]	; (8000768 <main+0x200>)
 800060a:	f000 fbb7 	bl	8000d7c <HAL_GPIO_WritePin>
 800060e:	4622      	mov	r2, r4
 8000610:	4856      	ldr	r0, [pc, #344]	; (800076c <main+0x204>)
 8000612:	f24f 0110 	movw	r1, #61456	; 0xf010
 8000616:	f000 fbb1 	bl	8000d7c <HAL_GPIO_WritePin>
 800061a:	2501      	movs	r5, #1
 800061c:	2608      	movs	r6, #8
 800061e:	4851      	ldr	r0, [pc, #324]	; (8000764 <main+0x1fc>)
 8000620:	a907      	add	r1, sp, #28
 8000622:	e9cd 6507 	strd	r6, r5, [sp, #28]
 8000626:	e9cd 4409 	strd	r4, r4, [sp, #36]	; 0x24
 800062a:	f000 facd 	bl	8000bc8 <HAL_GPIO_Init>
 800062e:	484e      	ldr	r0, [pc, #312]	; (8000768 <main+0x200>)
 8000630:	a907      	add	r1, sp, #28
 8000632:	e9cd 5507 	strd	r5, r5, [sp, #28]
 8000636:	f04f 0805 	mov.w	r8, #5
 800063a:	e9cd 4409 	strd	r4, r4, [sp, #36]	; 0x24
 800063e:	f000 fac3 	bl	8000bc8 <HAL_GPIO_Init>
 8000642:	4849      	ldr	r0, [pc, #292]	; (8000768 <main+0x200>)
 8000644:	9607      	str	r6, [sp, #28]
 8000646:	a907      	add	r1, sp, #28
 8000648:	2602      	movs	r6, #2
 800064a:	f44f 1790 	mov.w	r7, #1179648	; 0x120000
 800064e:	e9cd 6408 	strd	r6, r4, [sp, #32]
 8000652:	940a      	str	r4, [sp, #40]	; 0x28
 8000654:	f8cd 802c 	str.w	r8, [sp, #44]	; 0x2c
 8000658:	f000 fab6 	bl	8000bc8 <HAL_GPIO_Init>
 800065c:	4844      	ldr	r0, [pc, #272]	; (8000770 <main+0x208>)
 800065e:	9507      	str	r5, [sp, #28]
 8000660:	a907      	add	r1, sp, #28
 8000662:	e9cd 7408 	strd	r7, r4, [sp, #32]
 8000666:	f000 faaf 	bl	8000bc8 <HAL_GPIO_Init>
 800066a:	2304      	movs	r3, #4
 800066c:	4841      	ldr	r0, [pc, #260]	; (8000774 <main+0x20c>)
 800066e:	9409      	str	r4, [sp, #36]	; 0x24
 8000670:	a907      	add	r1, sp, #28
 8000672:	e9cd 3407 	strd	r3, r4, [sp, #28]
 8000676:	f000 faa7 	bl	8000bc8 <HAL_GPIO_Init>
 800067a:	f44f 6380 	mov.w	r3, #1024	; 0x400
 800067e:	483d      	ldr	r0, [pc, #244]	; (8000774 <main+0x20c>)
 8000680:	f8cd 802c 	str.w	r8, [sp, #44]	; 0x2c
 8000684:	a907      	add	r1, sp, #28
 8000686:	e9cd 3607 	strd	r3, r6, [sp, #28]
 800068a:	e9cd 4409 	strd	r4, r4, [sp, #36]	; 0x24
 800068e:	f000 fa9b 	bl	8000bc8 <HAL_GPIO_Init>
 8000692:	f24f 0310 	movw	r3, #61456	; 0xf010
 8000696:	4835      	ldr	r0, [pc, #212]	; (800076c <main+0x204>)
 8000698:	a907      	add	r1, sp, #28
 800069a:	e9cd 3507 	strd	r3, r5, [sp, #28]
 800069e:	e9cd 4409 	strd	r4, r4, [sp, #36]	; 0x24
 80006a2:	f000 fa91 	bl	8000bc8 <HAL_GPIO_Init>
 80006a6:	2320      	movs	r3, #32
 80006a8:	4830      	ldr	r0, [pc, #192]	; (800076c <main+0x204>)
 80006aa:	9409      	str	r4, [sp, #36]	; 0x24
 80006ac:	a907      	add	r1, sp, #28
 80006ae:	e9cd 3407 	strd	r3, r4, [sp, #28]
 80006b2:	f000 fa89 	bl	8000bc8 <HAL_GPIO_Init>
 80006b6:	482b      	ldr	r0, [pc, #172]	; (8000764 <main+0x1fc>)
 80006b8:	4d2f      	ldr	r5, [pc, #188]	; (8000778 <main+0x210>)
 80006ba:	9409      	str	r4, [sp, #36]	; 0x24
 80006bc:	a907      	add	r1, sp, #28
 80006be:	e9cd 6707 	strd	r6, r7, [sp, #28]
 80006c2:	f000 fa81 	bl	8000bc8 <HAL_GPIO_Init>
 80006c6:	482d      	ldr	r0, [pc, #180]	; (800077c <main+0x214>)
 80006c8:	4b2d      	ldr	r3, [pc, #180]	; (8000780 <main+0x218>)
 80006ca:	6204      	str	r4, [r0, #32]
 80006cc:	e9c0 5300 	strd	r5, r3, [r0]
 80006d0:	f44f 4380 	mov.w	r3, #16384	; 0x4000
 80006d4:	e9c0 4402 	strd	r4, r4, [r0, #8]
 80006d8:	e9c0 3404 	strd	r3, r4, [r0, #16]
 80006dc:	e9c0 4406 	strd	r4, r4, [r0, #24]
 80006e0:	f000 ffb4 	bl	800164c <HAL_I2C_Init>
 80006e4:	b108      	cbz	r0, 80006ea <main+0x182>
 80006e6:	b672      	cpsid	i
 80006e8:	e7fe      	b.n	80006e8 <main+0x180>
 80006ea:	4b26      	ldr	r3, [pc, #152]	; (8000784 <main+0x21c>)
 80006ec:	4a26      	ldr	r2, [pc, #152]	; (8000788 <main+0x220>)
 80006ee:	f44f 7400 	mov.w	r4, #512	; 0x200
 80006f2:	e9c3 2400 	strd	r2, r4, [r3]
 80006f6:	4a25      	ldr	r2, [pc, #148]	; (800078c <main+0x224>)
 80006f8:	611c      	str	r4, [r3, #16]
 80006fa:	e9c3 0002 	strd	r0, r0, [r3, #8]
 80006fe:	e9c3 2005 	strd	r2, r0, [r3, #20]
 8000702:	e9c3 0007 	strd	r0, r0, [r3, #28]
 8000706:	4618      	mov	r0, r3
 8000708:	f001 f848 	bl	800179c <HAL_I2S_Init>
 800070c:	b108      	cbz	r0, 8000712 <main+0x1aa>
 800070e:	b672      	cpsid	i
 8000710:	e7fe      	b.n	8000710 <main+0x1a8>
 8000712:	4b1f      	ldr	r3, [pc, #124]	; (8000790 <main+0x228>)
 8000714:	491f      	ldr	r1, [pc, #124]	; (8000794 <main+0x22c>)
 8000716:	6298      	str	r0, [r3, #40]	; 0x28
 8000718:	f44f 7282 	mov.w	r2, #260	; 0x104
 800071c:	e9c3 1200 	strd	r1, r2, [r3]
 8000720:	e9c3 0002 	strd	r0, r0, [r3, #8]
 8000724:	e9c3 0004 	strd	r0, r0, [r3, #16]
 8000728:	e9c3 4006 	strd	r4, r0, [r3, #24]
 800072c:	e9c3 0008 	strd	r0, r0, [r3, #32]
 8000730:	220a      	movs	r2, #10
 8000732:	4618      	mov	r0, r3
 8000734:	62da      	str	r2, [r3, #44]	; 0x2c
 8000736:	f001 fdb9 	bl	80022ac <HAL_SPI_Init>
 800073a:	b108      	cbz	r0, 8000740 <main+0x1d8>
 800073c:	b672      	cpsid	i
 800073e:	e7fe      	b.n	800073e <main+0x1d6>
 8000740:	f003 f950 	bl	80039e4 <MX_USB_HOST_Init>
 8000744:	4c09      	ldr	r4, [pc, #36]	; (800076c <main+0x204>)
 8000746:	f44f 70fa 	mov.w	r0, #500	; 0x1f4
 800074a:	f000 f9c3 	bl	8000ad4 <HAL_Delay>
 800074e:	f44f 4100 	mov.w	r1, #32768	; 0x8000
 8000752:	4620      	mov	r0, r4
 8000754:	f000 fb17 	bl	8000d86 <HAL_GPIO_TogglePin>
 8000758:	f003 f964 	bl	8003a24 <MX_USB_HOST_Process>
 800075c:	e7f3      	b.n	8000746 <main+0x1de>
 800075e:	bf00      	nop
 8000760:	40023800 	.word	0x40023800
 8000764:	40021000 	.word	0x40021000
 8000768:	40020800 	.word	0x40020800
 800076c:	40020c00 	.word	0x40020c00
 8000770:	40020000 	.word	0x40020000
 8000774:	40020400 	.word	0x40020400
 8000778:	40005400 	.word	0x40005400
 800077c:	20000098 	.word	0x20000098
 8000780:	000186a0 	.word	0x000186a0
 8000784:	200000ec 	.word	0x200000ec
 8000788:	40003c00 	.word	0x40003c00
 800078c:	00017700 	.word	0x00017700
 8000790:	20000134 	.word	0x20000134
 8000794:	40013000 	.word	0x40013000

08000798 <Error_Handler>:
 8000798:	b672      	cpsid	i
 800079a:	e7fe      	b.n	800079a <Error_Handler+0x2>

0800079c <HAL_MspInit>:
 800079c:	b082      	sub	sp, #8
 800079e:	4b0d      	ldr	r3, [pc, #52]	; (80007d4 <HAL_MspInit+0x38>)
 80007a0:	2100      	movs	r1, #0
 80007a2:	9100      	str	r1, [sp, #0]
 80007a4:	6c5a      	ldr	r2, [r3, #68]	; 0x44
 80007a6:	f442 4280 	orr.w	r2, r2, #16384	; 0x4000
 80007aa:	645a      	str	r2, [r3, #68]	; 0x44
 80007ac:	6c5a      	ldr	r2, [r3, #68]	; 0x44
 80007ae:	f402 4280 	and.w	r2, r2, #16384	; 0x4000
 80007b2:	9200      	str	r2, [sp, #0]
 80007b4:	9a00      	ldr	r2, [sp, #0]
 80007b6:	9101      	str	r1, [sp, #4]
 80007b8:	6c1a      	ldr	r2, [r3, #64]	; 0x40
 80007ba:	f042 5280 	orr.w	r2, r2, #268435456	; 0x10000000
 80007be:	641a      	str	r2, [r3, #64]	; 0x40
 80007c0:	6c1b      	ldr	r3, [r3, #64]	; 0x40
 80007c2:	f003 5380 	and.w	r3, r3, #268435456	; 0x10000000
 80007c6:	9301      	str	r3, [sp, #4]
 80007c8:	9b01      	ldr	r3, [sp, #4]
 80007ca:	2007      	movs	r0, #7
 80007cc:	b002      	add	sp, #8
 80007ce:	f000 b995 	b.w	8000afc <HAL_NVIC_SetPriorityGrouping>
 80007d2:	bf00      	nop
 80007d4:	40023800 	.word	0x40023800

080007d8 <HAL_I2C_MspInit>:
 80007d8:	b530      	push	{r4, r5, lr}
 80007da:	4604      	mov	r4, r0
 80007dc:	b089      	sub	sp, #36	; 0x24
 80007de:	2214      	movs	r2, #20
 80007e0:	2100      	movs	r1, #0
 80007e2:	a803      	add	r0, sp, #12
 80007e4:	f003 faf2 	bl	8003dcc <memset>
 80007e8:	6822      	ldr	r2, [r4, #0]
 80007ea:	4b14      	ldr	r3, [pc, #80]	; (800083c <HAL_I2C_MspInit+0x64>)
 80007ec:	429a      	cmp	r2, r3
 80007ee:	d122      	bne.n	8000836 <HAL_I2C_MspInit+0x5e>
 80007f0:	4c13      	ldr	r4, [pc, #76]	; (8000840 <HAL_I2C_MspInit+0x68>)
 80007f2:	4814      	ldr	r0, [pc, #80]	; (8000844 <HAL_I2C_MspInit+0x6c>)
 80007f4:	2500      	movs	r5, #0
 80007f6:	9501      	str	r5, [sp, #4]
 80007f8:	6b23      	ldr	r3, [r4, #48]	; 0x30
 80007fa:	f043 0302 	orr.w	r3, r3, #2
 80007fe:	6323      	str	r3, [r4, #48]	; 0x30
 8000800:	6b23      	ldr	r3, [r4, #48]	; 0x30
 8000802:	f003 0302 	and.w	r3, r3, #2
 8000806:	9301      	str	r3, [sp, #4]
 8000808:	9b01      	ldr	r3, [sp, #4]
 800080a:	f44f 7210 	mov.w	r2, #576	; 0x240
 800080e:	2312      	movs	r3, #18
 8000810:	e9cd 2303 	strd	r2, r3, [sp, #12]
 8000814:	2301      	movs	r3, #1
 8000816:	9305      	str	r3, [sp, #20]
 8000818:	a903      	add	r1, sp, #12
 800081a:	2304      	movs	r3, #4
 800081c:	9307      	str	r3, [sp, #28]
 800081e:	f000 f9d3 	bl	8000bc8 <HAL_GPIO_Init>
 8000822:	9502      	str	r5, [sp, #8]
 8000824:	6c23      	ldr	r3, [r4, #64]	; 0x40
 8000826:	f443 1300 	orr.w	r3, r3, #2097152	; 0x200000
 800082a:	6423      	str	r3, [r4, #64]	; 0x40
 800082c:	6c23      	ldr	r3, [r4, #64]	; 0x40
 800082e:	f403 1300 	and.w	r3, r3, #2097152	; 0x200000
 8000832:	9302      	str	r3, [sp, #8]
 8000834:	9b02      	ldr	r3, [sp, #8]
 8000836:	b009      	add	sp, #36	; 0x24
 8000838:	bd30      	pop	{r4, r5, pc}
 800083a:	bf00      	nop
 800083c:	40005400 	.word	0x40005400
 8000840:	40023800 	.word	0x40023800
 8000844:	40020400 	.word	0x40020400

08000848 <HAL_I2S_MspInit>:
 8000848:	b570      	push	{r4, r5, r6, lr}
 800084a:	b08c      	sub	sp, #48	; 0x30
 800084c:	4604      	mov	r4, r0
 800084e:	2214      	movs	r2, #20
 8000850:	2100      	movs	r1, #0
 8000852:	a807      	add	r0, sp, #28
 8000854:	f003 faba 	bl	8003dcc <memset>
 8000858:	2210      	movs	r2, #16
 800085a:	2100      	movs	r1, #0
 800085c:	a803      	add	r0, sp, #12
 800085e:	f003 fab5 	bl	8003dcc <memset>
 8000862:	6822      	ldr	r2, [r4, #0]
 8000864:	4b23      	ldr	r3, [pc, #140]	; (80008f4 <HAL_I2S_MspInit+0xac>)
 8000866:	429a      	cmp	r2, r3
 8000868:	d142      	bne.n	80008f0 <HAL_I2S_MspInit+0xa8>
 800086a:	23c0      	movs	r3, #192	; 0xc0
 800086c:	2201      	movs	r2, #1
 800086e:	e9cd 2303 	strd	r2, r3, [sp, #12]
 8000872:	a803      	add	r0, sp, #12
 8000874:	2302      	movs	r3, #2
 8000876:	9305      	str	r3, [sp, #20]
 8000878:	f001 fc5a 	bl	8002130 <HAL_RCCEx_PeriphCLKConfig>
 800087c:	b108      	cbz	r0, 8000882 <HAL_I2S_MspInit+0x3a>
 800087e:	f7ff ff8b 	bl	8000798 <Error_Handler>
 8000882:	4b1d      	ldr	r3, [pc, #116]	; (80008f8 <HAL_I2S_MspInit+0xb0>)
 8000884:	481d      	ldr	r0, [pc, #116]	; (80008fc <HAL_I2S_MspInit+0xb4>)
 8000886:	2400      	movs	r4, #0
 8000888:	9400      	str	r4, [sp, #0]
 800088a:	6c1a      	ldr	r2, [r3, #64]	; 0x40
 800088c:	f442 4200 	orr.w	r2, r2, #32768	; 0x8000
 8000890:	641a      	str	r2, [r3, #64]	; 0x40
 8000892:	6c1a      	ldr	r2, [r3, #64]	; 0x40
 8000894:	f402 4200 	and.w	r2, r2, #32768	; 0x8000
 8000898:	9200      	str	r2, [sp, #0]
 800089a:	9a00      	ldr	r2, [sp, #0]
 800089c:	9401      	str	r4, [sp, #4]
 800089e:	6b1a      	ldr	r2, [r3, #48]	; 0x30
 80008a0:	f042 0201 	orr.w	r2, r2, #1
 80008a4:	631a      	str	r2, [r3, #48]	; 0x30
 80008a6:	6b1a      	ldr	r2, [r3, #48]	; 0x30
 80008a8:	f002 0201 	and.w	r2, r2, #1
 80008ac:	9201      	str	r2, [sp, #4]
 80008ae:	9a01      	ldr	r2, [sp, #4]
 80008b0:	9402      	str	r4, [sp, #8]
 80008b2:	6b1a      	ldr	r2, [r3, #48]	; 0x30
 80008b4:	f042 0204 	orr.w	r2, r2, #4
 80008b8:	631a      	str	r2, [r3, #48]	; 0x30
 80008ba:	6b1b      	ldr	r3, [r3, #48]	; 0x30
 80008bc:	f003 0304 	and.w	r3, r3, #4
 80008c0:	9302      	str	r3, [sp, #8]
 80008c2:	9b02      	ldr	r3, [sp, #8]
 80008c4:	2602      	movs	r6, #2
 80008c6:	2310      	movs	r3, #16
 80008c8:	2506      	movs	r5, #6
 80008ca:	a907      	add	r1, sp, #28
 80008cc:	e9cd 3607 	strd	r3, r6, [sp, #28]
 80008d0:	e9cd 4409 	strd	r4, r4, [sp, #36]	; 0x24
 80008d4:	950b      	str	r5, [sp, #44]	; 0x2c
 80008d6:	f000 f977 	bl	8000bc8 <HAL_GPIO_Init>
 80008da:	f44f 53a4 	mov.w	r3, #5248	; 0x1480
 80008de:	4808      	ldr	r0, [pc, #32]	; (8000900 <HAL_I2S_MspInit+0xb8>)
 80008e0:	950b      	str	r5, [sp, #44]	; 0x2c
 80008e2:	a907      	add	r1, sp, #28
 80008e4:	e9cd 3607 	strd	r3, r6, [sp, #28]
 80008e8:	e9cd 4409 	strd	r4, r4, [sp, #36]	; 0x24
 80008ec:	f000 f96c 	bl	8000bc8 <HAL_GPIO_Init>
 80008f0:	b00c      	add	sp, #48	; 0x30
 80008f2:	bd70      	pop	{r4, r5, r6, pc}
 80008f4:	40003c00 	.word	0x40003c00
 80008f8:	40023800 	.word	0x40023800
 80008fc:	40020000 	.word	0x40020000
 8000900:	40020800 	.word	0x40020800

08000904 <HAL_SPI_MspInit>:
 8000904:	b510      	push	{r4, lr}
 8000906:	4604      	mov	r4, r0
 8000908:	b088      	sub	sp, #32
 800090a:	2214      	movs	r2, #20
 800090c:	2100      	movs	r1, #0
 800090e:	a803      	add	r0, sp, #12
 8000910:	f003 fa5c 	bl	8003dcc <memset>
 8000914:	6822      	ldr	r2, [r4, #0]
 8000916:	4b13      	ldr	r3, [pc, #76]	; (8000964 <HAL_SPI_MspInit+0x60>)
 8000918:	429a      	cmp	r2, r3
 800091a:	d120      	bne.n	800095e <HAL_SPI_MspInit+0x5a>
 800091c:	f503 3384 	add.w	r3, r3, #67584	; 0x10800
 8000920:	2100      	movs	r1, #0
 8000922:	9101      	str	r1, [sp, #4]
 8000924:	6c5a      	ldr	r2, [r3, #68]	; 0x44
 8000926:	4810      	ldr	r0, [pc, #64]	; (8000968 <HAL_SPI_MspInit+0x64>)
 8000928:	f442 5280 	orr.w	r2, r2, #4096	; 0x1000
 800092c:	645a      	str	r2, [r3, #68]	; 0x44
 800092e:	6c5a      	ldr	r2, [r3, #68]	; 0x44
 8000930:	f402 5280 	and.w	r2, r2, #4096	; 0x1000
 8000934:	9201      	str	r2, [sp, #4]
 8000936:	9a01      	ldr	r2, [sp, #4]
 8000938:	9102      	str	r1, [sp, #8]
 800093a:	6b1a      	ldr	r2, [r3, #48]	; 0x30
 800093c:	f042 0201 	orr.w	r2, r2, #1
 8000940:	631a      	str	r2, [r3, #48]	; 0x30
 8000942:	6b1b      	ldr	r3, [r3, #48]	; 0x30
 8000944:	f003 0301 	and.w	r3, r3, #1
 8000948:	9302      	str	r3, [sp, #8]
 800094a:	9b02      	ldr	r3, [sp, #8]
 800094c:	22e0      	movs	r2, #224	; 0xe0
 800094e:	2302      	movs	r3, #2
 8000950:	e9cd 2303 	strd	r2, r3, [sp, #12]
 8000954:	a903      	add	r1, sp, #12
 8000956:	2305      	movs	r3, #5
 8000958:	9307      	str	r3, [sp, #28]
 800095a:	f000 f935 	bl	8000bc8 <HAL_GPIO_Init>
 800095e:	b008      	add	sp, #32
 8000960:	bd10      	pop	{r4, pc}
 8000962:	bf00      	nop
 8000964:	40013000 	.word	0x40013000
 8000968:	40020000 	.word	0x40020000

0800096c <NMI_Handler>:
 800096c:	e7fe      	b.n	800096c <NMI_Handler>

0800096e <HardFault_Handler>:
 800096e:	e7fe      	b.n	800096e <HardFault_Handler>

08000970 <MemManage_Handler>:
 8000970:	e7fe      	b.n	8000970 <MemManage_Handler>

08000972 <BusFault_Handler>:
 8000972:	e7fe      	b.n	8000972 <BusFault_Handler>

08000974 <UsageFault_Handler>:
 8000974:	e7fe      	b.n	8000974 <UsageFault_Handler>

08000976 <SVC_Handler>:
 8000976:	4770      	bx	lr

08000978 <DebugMon_Handler>:
 8000978:	4770      	bx	lr

0800097a <PendSV_Handler>:
 800097a:	4770      	bx	lr

0800097c <SysTick_Handler>:
 800097c:	f000 b898 	b.w	8000ab0 <HAL_IncTick>

08000980 <OTG_FS_IRQHandler>:
 8000980:	4801      	ldr	r0, [pc, #4]	; (8000988 <OTG_FS_IRQHandler+0x8>)
 8000982:	f000 bb01 	b.w	8000f88 <HAL_HCD_IRQHandler>
 8000986:	bf00      	nop
 8000988:	20000570 	.word	0x20000570

0800098c <_sbrk>:
 800098c:	4a0b      	ldr	r2, [pc, #44]	; (80009bc <_sbrk+0x30>)
 800098e:	6811      	ldr	r1, [r2, #0]
 8000990:	b510      	push	{r4, lr}
 8000992:	4603      	mov	r3, r0
 8000994:	b909      	cbnz	r1, 800099a <_sbrk+0xe>
 8000996:	490a      	ldr	r1, [pc, #40]	; (80009c0 <_sbrk+0x34>)
 8000998:	6011      	str	r1, [r2, #0]
 800099a:	6810      	ldr	r0, [r2, #0]
 800099c:	4909      	ldr	r1, [pc, #36]	; (80009c4 <_sbrk+0x38>)
 800099e:	4c0a      	ldr	r4, [pc, #40]	; (80009c8 <_sbrk+0x3c>)
 80009a0:	4403      	add	r3, r0
 80009a2:	1b09      	subs	r1, r1, r4
 80009a4:	428b      	cmp	r3, r1
 80009a6:	d906      	bls.n	80009b6 <_sbrk+0x2a>
 80009a8:	f003 fa28 	bl	8003dfc <__errno>
 80009ac:	230c      	movs	r3, #12
 80009ae:	6003      	str	r3, [r0, #0]
 80009b0:	f04f 30ff 	mov.w	r0, #4294967295
 80009b4:	bd10      	pop	{r4, pc}
 80009b6:	6013      	str	r3, [r2, #0]
 80009b8:	e7fc      	b.n	80009b4 <_sbrk+0x28>
 80009ba:	bf00      	nop
 80009bc:	2000018c 	.word	0x2000018c
 80009c0:	200009c0 	.word	0x200009c0
 80009c4:	20020000 	.word	0x20020000
 80009c8:	00000400 	.word	0x00000400

080009cc <SystemInit>:
 80009cc:	4a03      	ldr	r2, [pc, #12]	; (80009dc <SystemInit+0x10>)
 80009ce:	f8d2 3088 	ldr.w	r3, [r2, #136]	; 0x88
 80009d2:	f443 0370 	orr.w	r3, r3, #15728640	; 0xf00000
 80009d6:	f8c2 3088 	str.w	r3, [r2, #136]	; 0x88
 80009da:	4770      	bx	lr
 80009dc:	e000ed00 	.word	0xe000ed00

080009e0 <Reset_Handler>:
 80009e0:	f8df d034 	ldr.w	sp, [pc, #52]	; 8000a18 <LoopFillZerobss+0x12>
 80009e4:	480d      	ldr	r0, [pc, #52]	; (8000a1c <LoopFillZerobss+0x16>)
 80009e6:	490e      	ldr	r1, [pc, #56]	; (8000a20 <LoopFillZerobss+0x1a>)
 80009e8:	4a0e      	ldr	r2, [pc, #56]	; (8000a24 <LoopFillZerobss+0x1e>)
 80009ea:	2300      	movs	r3, #0
 80009ec:	e002      	b.n	80009f4 <LoopCopyDataInit>

080009ee <CopyDataInit>:
 80009ee:	58d4      	ldr	r4, [r2, r3]
 80009f0:	50c4      	str	r4, [r0, r3]
 80009f2:	3304      	adds	r3, #4

080009f4 <LoopCopyDataInit>:
 80009f4:	18c4      	adds	r4, r0, r3
 80009f6:	428c      	cmp	r4, r1
 80009f8:	d3f9      	bcc.n	80009ee <CopyDataInit>
 80009fa:	4a0b      	ldr	r2, [pc, #44]	; (8000a28 <LoopFillZerobss+0x22>)
 80009fc:	4c0b      	ldr	r4, [pc, #44]	; (8000a2c <LoopFillZerobss+0x26>)
 80009fe:	2300      	movs	r3, #0
 8000a00:	e001      	b.n	8000a06 <LoopFillZerobss>

08000a02 <FillZerobss>:
 8000a02:	6013      	str	r3, [r2, #0]
 8000a04:	3204      	adds	r2, #4

08000a06 <LoopFillZerobss>:
 8000a06:	42a2      	cmp	r2, r4
 8000a08:	d3fb      	bcc.n	8000a02 <FillZerobss>
 8000a0a:	f7ff ffdf 	bl	80009cc <SystemInit>
 8000a0e:	f003 f9fb 	bl	8003e08 <__libc_init_array>
 8000a12:	f7ff fda9 	bl	8000568 <main>
 8000a16:	4770      	bx	lr
 8000a18:	20020000 	.word	0x20020000
 8000a1c:	20000000 	.word	0x20000000
 8000a20:	2000007c 	.word	0x2000007c
 8000a24:	08003f34 	.word	0x08003f34
 8000a28:	2000007c 	.word	0x2000007c
 8000a2c:	200009bc 	.word	0x200009bc

08000a30 <ADC_IRQHandler>:
 8000a30:	e7fe      	b.n	8000a30 <ADC_IRQHandler>
	...

08000a34 <HAL_InitTick>:
 8000a34:	b538      	push	{r3, r4, r5, lr}
 8000a36:	4b0e      	ldr	r3, [pc, #56]	; (8000a70 <HAL_InitTick+0x3c>)
 8000a38:	781a      	ldrb	r2, [r3, #0]
 8000a3a:	f44f 737a 	mov.w	r3, #1000	; 0x3e8
 8000a3e:	fbb3 f3f2 	udiv	r3, r3, r2
 8000a42:	4a0c      	ldr	r2, [pc, #48]	; (8000a74 <HAL_InitTick+0x40>)
 8000a44:	4605      	mov	r5, r0
 8000a46:	6810      	ldr	r0, [r2, #0]
 8000a48:	fbb0 f0f3 	udiv	r0, r0, r3
 8000a4c:	f000 f8a8 	bl	8000ba0 <HAL_SYSTICK_Config>
 8000a50:	4604      	mov	r4, r0
 8000a52:	b958      	cbnz	r0, 8000a6c <HAL_InitTick+0x38>
 8000a54:	2d0f      	cmp	r5, #15
 8000a56:	d809      	bhi.n	8000a6c <HAL_InitTick+0x38>
 8000a58:	4602      	mov	r2, r0
 8000a5a:	4629      	mov	r1, r5
 8000a5c:	f04f 30ff 	mov.w	r0, #4294967295
 8000a60:	f000 f85e 	bl	8000b20 <HAL_NVIC_SetPriority>
 8000a64:	4b04      	ldr	r3, [pc, #16]	; (8000a78 <HAL_InitTick+0x44>)
 8000a66:	4620      	mov	r0, r4
 8000a68:	601d      	str	r5, [r3, #0]
 8000a6a:	bd38      	pop	{r3, r4, r5, pc}
 8000a6c:	2001      	movs	r0, #1
 8000a6e:	e7fc      	b.n	8000a6a <HAL_InitTick+0x36>
 8000a70:	20000004 	.word	0x20000004
 8000a74:	20000000 	.word	0x20000000
 8000a78:	20000008 	.word	0x20000008

08000a7c <HAL_Init>:
 8000a7c:	b508      	push	{r3, lr}
 8000a7e:	4b0b      	ldr	r3, [pc, #44]	; (8000aac <HAL_Init+0x30>)
 8000a80:	681a      	ldr	r2, [r3, #0]
 8000a82:	f442 7200 	orr.w	r2, r2, #512	; 0x200
 8000a86:	601a      	str	r2, [r3, #0]
 8000a88:	681a      	ldr	r2, [r3, #0]
 8000a8a:	f442 6280 	orr.w	r2, r2, #1024	; 0x400
 8000a8e:	601a      	str	r2, [r3, #0]
 8000a90:	681a      	ldr	r2, [r3, #0]
 8000a92:	f442 7280 	orr.w	r2, r2, #256	; 0x100
 8000a96:	601a      	str	r2, [r3, #0]
 8000a98:	2003      	movs	r0, #3
 8000a9a:	f000 f82f 	bl	8000afc <HAL_NVIC_SetPriorityGrouping>
 8000a9e:	2000      	movs	r0, #0
 8000aa0:	f7ff ffc8 	bl	8000a34 <HAL_InitTick>
 8000aa4:	f7ff fe7a 	bl	800079c <HAL_MspInit>
 8000aa8:	2000      	movs	r0, #0
 8000aaa:	bd08      	pop	{r3, pc}
 8000aac:	40023c00 	.word	0x40023c00

08000ab0 <HAL_IncTick>:
 8000ab0:	4a03      	ldr	r2, [pc, #12]	; (8000ac0 <HAL_IncTick+0x10>)
 8000ab2:	4b04      	ldr	r3, [pc, #16]	; (8000ac4 <HAL_IncTick+0x14>)
 8000ab4:	6811      	ldr	r1, [r2, #0]
 8000ab6:	781b      	ldrb	r3, [r3, #0]
 8000ab8:	440b      	add	r3, r1
 8000aba:	6013      	str	r3, [r2, #0]
 8000abc:	4770      	bx	lr
 8000abe:	bf00      	nop
 8000ac0:	20000190 	.word	0x20000190
 8000ac4:	20000004 	.word	0x20000004

08000ac8 <HAL_GetTick>:
 8000ac8:	4b01      	ldr	r3, [pc, #4]	; (8000ad0 <HAL_GetTick+0x8>)
 8000aca:	6818      	ldr	r0, [r3, #0]
 8000acc:	4770      	bx	lr
 8000ace:	bf00      	nop
 8000ad0:	20000190 	.word	0x20000190

08000ad4 <HAL_Delay>:
 8000ad4:	b538      	push	{r3, r4, r5, lr}
 8000ad6:	4604      	mov	r4, r0
 8000ad8:	f7ff fff6 	bl	8000ac8 <HAL_GetTick>
 8000adc:	1c63      	adds	r3, r4, #1
 8000ade:	bf1c      	itt	ne
 8000ae0:	4b05      	ldrne	r3, [pc, #20]	; (8000af8 <HAL_Delay+0x24>)
 8000ae2:	781b      	ldrbne	r3, [r3, #0]
 8000ae4:	4605      	mov	r5, r0
 8000ae6:	bf18      	it	ne
 8000ae8:	18e4      	addne	r4, r4, r3
 8000aea:	f7ff ffed 	bl	8000ac8 <HAL_GetTick>
 8000aee:	1b43      	subs	r3, r0, r5
 8000af0:	42a3      	cmp	r3, r4
 8000af2:	d3fa      	bcc.n	8000aea <HAL_Delay+0x16>
 8000af4:	bd38      	pop	{r3, r4, r5, pc}
 8000af6:	bf00      	nop
 8000af8:	20000004 	.word	0x20000004

08000afc <HAL_NVIC_SetPriorityGrouping>:
 8000afc:	4907      	ldr	r1, [pc, #28]	; (8000b1c <HAL_NVIC_SetPriorityGrouping+0x20>)
 8000afe:	68ca      	ldr	r2, [r1, #12]
 8000b00:	f422 62e0 	bic.w	r2, r2, #1792	; 0x700
 8000b04:	0203      	lsls	r3, r0, #8
 8000b06:	0412      	lsls	r2, r2, #16
 8000b08:	f403 63e0 	and.w	r3, r3, #1792	; 0x700
 8000b0c:	0c12      	lsrs	r2, r2, #16
 8000b0e:	4313      	orrs	r3, r2
 8000b10:	f043 63bf 	orr.w	r3, r3, #100139008	; 0x5f80000
 8000b14:	f443 3300 	orr.w	r3, r3, #131072	; 0x20000
 8000b18:	60cb      	str	r3, [r1, #12]
 8000b1a:	4770      	bx	lr
 8000b1c:	e000ed00 	.word	0xe000ed00

08000b20 <HAL_NVIC_SetPriority>:
 8000b20:	4b16      	ldr	r3, [pc, #88]	; (8000b7c <HAL_NVIC_SetPriority+0x5c>)
 8000b22:	b530      	push	{r4, r5, lr}
 8000b24:	68dc      	ldr	r4, [r3, #12]
 8000b26:	f3c4 2402 	ubfx	r4, r4, #8, #3
 8000b2a:	f1c4 0307 	rsb	r3, r4, #7
 8000b2e:	1d25      	adds	r5, r4, #4
 8000b30:	2b04      	cmp	r3, #4
 8000b32:	bf28      	it	cs
 8000b34:	2304      	movcs	r3, #4
 8000b36:	2d06      	cmp	r5, #6
 8000b38:	f04f 35ff 	mov.w	r5, #4294967295
 8000b3c:	bf8c      	ite	hi
 8000b3e:	3c03      	subhi	r4, #3
 8000b40:	2400      	movls	r4, #0
 8000b42:	fa05 f303 	lsl.w	r3, r5, r3
 8000b46:	ea21 0303 	bic.w	r3, r1, r3
 8000b4a:	40a5      	lsls	r5, r4
 8000b4c:	ea22 0205 	bic.w	r2, r2, r5
 8000b50:	40a3      	lsls	r3, r4
 8000b52:	2800      	cmp	r0, #0
 8000b54:	ea43 0302 	orr.w	r3, r3, r2
 8000b58:	bfac      	ite	ge
 8000b5a:	f100 4060 	addge.w	r0, r0, #3758096384	; 0xe0000000
 8000b5e:	4a08      	ldrlt	r2, [pc, #32]	; (8000b80 <HAL_NVIC_SetPriority+0x60>)
 8000b60:	ea4f 1303 	mov.w	r3, r3, lsl #4
 8000b64:	bfb8      	it	lt
 8000b66:	f000 000f 	andlt.w	r0, r0, #15
 8000b6a:	b2db      	uxtb	r3, r3
 8000b6c:	bfaa      	itet	ge
 8000b6e:	f500 4061 	addge.w	r0, r0, #57600	; 0xe100
 8000b72:	5413      	strblt	r3, [r2, r0]
 8000b74:	f880 3300 	strbge.w	r3, [r0, #768]	; 0x300
 8000b78:	bd30      	pop	{r4, r5, pc}
 8000b7a:	bf00      	nop
 8000b7c:	e000ed00 	.word	0xe000ed00
 8000b80:	e000ed14 	.word	0xe000ed14

08000b84 <HAL_NVIC_EnableIRQ>:
 8000b84:	2800      	cmp	r0, #0
 8000b86:	db07      	blt.n	8000b98 <HAL_NVIC_EnableIRQ+0x14>
 8000b88:	0941      	lsrs	r1, r0, #5
 8000b8a:	4a04      	ldr	r2, [pc, #16]	; (8000b9c <HAL_NVIC_EnableIRQ+0x18>)
 8000b8c:	f000 001f 	and.w	r0, r0, #31
 8000b90:	2301      	movs	r3, #1
 8000b92:	4083      	lsls	r3, r0
 8000b94:	f842 3021 	str.w	r3, [r2, r1, lsl #2]
 8000b98:	4770      	bx	lr
 8000b9a:	bf00      	nop
 8000b9c:	e000e100 	.word	0xe000e100

08000ba0 <HAL_SYSTICK_Config>:
 8000ba0:	3801      	subs	r0, #1
 8000ba2:	f1b0 7f80 	cmp.w	r0, #16777216	; 0x1000000
 8000ba6:	d20b      	bcs.n	8000bc0 <HAL_SYSTICK_Config+0x20>
 8000ba8:	f04f 23e0 	mov.w	r3, #3758153728	; 0xe000e000
 8000bac:	4a05      	ldr	r2, [pc, #20]	; (8000bc4 <HAL_SYSTICK_Config+0x24>)
 8000bae:	6158      	str	r0, [r3, #20]
 8000bb0:	21f0      	movs	r1, #240	; 0xf0
 8000bb2:	f882 1023 	strb.w	r1, [r2, #35]	; 0x23
 8000bb6:	2000      	movs	r0, #0
 8000bb8:	2207      	movs	r2, #7
 8000bba:	6198      	str	r0, [r3, #24]
 8000bbc:	611a      	str	r2, [r3, #16]
 8000bbe:	4770      	bx	lr
 8000bc0:	2001      	movs	r0, #1
 8000bc2:	4770      	bx	lr
 8000bc4:	e000ed00 	.word	0xe000ed00

08000bc8 <HAL_GPIO_Init>:
 8000bc8:	e92d 4ff7 	stmdb	sp!, {r0, r1, r2, r4, r5, r6, r7, r8, r9, sl, fp, lr}
 8000bcc:	f8df 91a8 	ldr.w	r9, [pc, #424]	; 8000d78 <HAL_GPIO_Init+0x1b0>
 8000bd0:	4a67      	ldr	r2, [pc, #412]	; (8000d70 <HAL_GPIO_Init+0x1a8>)
 8000bd2:	2300      	movs	r3, #0
 8000bd4:	680d      	ldr	r5, [r1, #0]
 8000bd6:	2401      	movs	r4, #1
 8000bd8:	409c      	lsls	r4, r3
 8000bda:	ea04 0c05 	and.w	ip, r4, r5
 8000bde:	43ac      	bics	r4, r5
 8000be0:	f040 80b1 	bne.w	8000d46 <HAL_GPIO_Init+0x17e>
 8000be4:	684d      	ldr	r5, [r1, #4]
 8000be6:	f005 0403 	and.w	r4, r5, #3
 8000bea:	ea4f 0843 	mov.w	r8, r3, lsl #1
 8000bee:	2603      	movs	r6, #3
 8000bf0:	1e67      	subs	r7, r4, #1
 8000bf2:	fa06 f608 	lsl.w	r6, r6, r8
 8000bf6:	2f01      	cmp	r7, #1
 8000bf8:	ea6f 0606 	mvn.w	r6, r6
 8000bfc:	d834      	bhi.n	8000c68 <HAL_GPIO_Init+0xa0>
 8000bfe:	6887      	ldr	r7, [r0, #8]
 8000c00:	ea07 0e06 	and.w	lr, r7, r6
 8000c04:	68cf      	ldr	r7, [r1, #12]
 8000c06:	fa07 f708 	lsl.w	r7, r7, r8
 8000c0a:	ea47 070e 	orr.w	r7, r7, lr
 8000c0e:	6087      	str	r7, [r0, #8]
 8000c10:	6847      	ldr	r7, [r0, #4]
 8000c12:	ea27 0e0c 	bic.w	lr, r7, ip
 8000c16:	f3c5 1700 	ubfx	r7, r5, #4, #1
 8000c1a:	409f      	lsls	r7, r3
 8000c1c:	ea47 070e 	orr.w	r7, r7, lr
 8000c20:	6047      	str	r7, [r0, #4]
 8000c22:	68c7      	ldr	r7, [r0, #12]
 8000c24:	ea07 0e06 	and.w	lr, r7, r6
 8000c28:	688f      	ldr	r7, [r1, #8]
 8000c2a:	fa07 f708 	lsl.w	r7, r7, r8
 8000c2e:	ea47 070e 	orr.w	r7, r7, lr
 8000c32:	2c02      	cmp	r4, #2
 8000c34:	60c7      	str	r7, [r0, #12]
 8000c36:	d119      	bne.n	8000c6c <HAL_GPIO_Init+0xa4>
 8000c38:	ea4f 0ad3 	mov.w	sl, r3, lsr #3
 8000c3c:	eb00 0a8a 	add.w	sl, r0, sl, lsl #2
 8000c40:	f003 0b07 	and.w	fp, r3, #7
 8000c44:	f8da 7020 	ldr.w	r7, [sl, #32]
 8000c48:	ea4f 0b8b 	mov.w	fp, fp, lsl #2
 8000c4c:	f04f 0e0f 	mov.w	lr, #15
 8000c50:	fa0e fe0b 	lsl.w	lr, lr, fp
 8000c54:	ea27 0e0e 	bic.w	lr, r7, lr
 8000c58:	690f      	ldr	r7, [r1, #16]
 8000c5a:	fa07 f70b 	lsl.w	r7, r7, fp
 8000c5e:	ea47 070e 	orr.w	r7, r7, lr
 8000c62:	f8ca 7020 	str.w	r7, [sl, #32]
 8000c66:	e001      	b.n	8000c6c <HAL_GPIO_Init+0xa4>
 8000c68:	2c03      	cmp	r4, #3
 8000c6a:	d1da      	bne.n	8000c22 <HAL_GPIO_Init+0x5a>
 8000c6c:	6807      	ldr	r7, [r0, #0]
 8000c6e:	fa04 f408 	lsl.w	r4, r4, r8
 8000c72:	4037      	ands	r7, r6
 8000c74:	433c      	orrs	r4, r7
 8000c76:	f415 3f40 	tst.w	r5, #196608	; 0x30000
 8000c7a:	6004      	str	r4, [r0, #0]
 8000c7c:	d063      	beq.n	8000d46 <HAL_GPIO_Init+0x17e>
 8000c7e:	f04f 0a00 	mov.w	sl, #0
 8000c82:	f8cd a004 	str.w	sl, [sp, #4]
 8000c86:	f8d9 6044 	ldr.w	r6, [r9, #68]	; 0x44
 8000c8a:	4c3a      	ldr	r4, [pc, #232]	; (8000d74 <HAL_GPIO_Init+0x1ac>)
 8000c8c:	f446 4680 	orr.w	r6, r6, #16384	; 0x4000
 8000c90:	f8c9 6044 	str.w	r6, [r9, #68]	; 0x44
 8000c94:	f8d9 6044 	ldr.w	r6, [r9, #68]	; 0x44
 8000c98:	f406 4680 	and.w	r6, r6, #16384	; 0x4000
 8000c9c:	9601      	str	r6, [sp, #4]
 8000c9e:	9e01      	ldr	r6, [sp, #4]
 8000ca0:	f023 0603 	bic.w	r6, r3, #3
 8000ca4:	f106 4680 	add.w	r6, r6, #1073741824	; 0x40000000
 8000ca8:	f506 369c 	add.w	r6, r6, #79872	; 0x13800
 8000cac:	f003 0e03 	and.w	lr, r3, #3
 8000cb0:	f8d6 8008 	ldr.w	r8, [r6, #8]
 8000cb4:	ea4f 0e8e 	mov.w	lr, lr, lsl #2
 8000cb8:	270f      	movs	r7, #15
 8000cba:	fa07 f70e 	lsl.w	r7, r7, lr
 8000cbe:	42a0      	cmp	r0, r4
 8000cc0:	ea28 0707 	bic.w	r7, r8, r7
 8000cc4:	d046      	beq.n	8000d54 <HAL_GPIO_Init+0x18c>
 8000cc6:	f504 6480 	add.w	r4, r4, #1024	; 0x400
 8000cca:	42a0      	cmp	r0, r4
 8000ccc:	d044      	beq.n	8000d58 <HAL_GPIO_Init+0x190>
 8000cce:	f504 6480 	add.w	r4, r4, #1024	; 0x400
 8000cd2:	42a0      	cmp	r0, r4
 8000cd4:	d042      	beq.n	8000d5c <HAL_GPIO_Init+0x194>
 8000cd6:	f504 6480 	add.w	r4, r4, #1024	; 0x400
 8000cda:	42a0      	cmp	r0, r4
 8000cdc:	d040      	beq.n	8000d60 <HAL_GPIO_Init+0x198>
 8000cde:	f504 6480 	add.w	r4, r4, #1024	; 0x400
 8000ce2:	42a0      	cmp	r0, r4
 8000ce4:	d03e      	beq.n	8000d64 <HAL_GPIO_Init+0x19c>
 8000ce6:	f504 6480 	add.w	r4, r4, #1024	; 0x400
 8000cea:	42a0      	cmp	r0, r4
 8000cec:	d03c      	beq.n	8000d68 <HAL_GPIO_Init+0x1a0>
 8000cee:	f504 6480 	add.w	r4, r4, #1024	; 0x400
 8000cf2:	42a0      	cmp	r0, r4
 8000cf4:	d03a      	beq.n	8000d6c <HAL_GPIO_Init+0x1a4>
 8000cf6:	f504 6480 	add.w	r4, r4, #1024	; 0x400
 8000cfa:	42a0      	cmp	r0, r4
 8000cfc:	bf0c      	ite	eq
 8000cfe:	2407      	moveq	r4, #7
 8000d00:	2408      	movne	r4, #8
 8000d02:	fa04 f40e 	lsl.w	r4, r4, lr
 8000d06:	433c      	orrs	r4, r7
 8000d08:	60b4      	str	r4, [r6, #8]
 8000d0a:	6894      	ldr	r4, [r2, #8]
 8000d0c:	ea6f 060c 	mvn.w	r6, ip
 8000d10:	02ef      	lsls	r7, r5, #11
 8000d12:	bf54      	ite	pl
 8000d14:	4034      	andpl	r4, r6
 8000d16:	ea4c 0404 	orrmi.w	r4, ip, r4
 8000d1a:	6094      	str	r4, [r2, #8]
 8000d1c:	68d4      	ldr	r4, [r2, #12]
 8000d1e:	02af      	lsls	r7, r5, #10
 8000d20:	bf54      	ite	pl
 8000d22:	4034      	andpl	r4, r6
 8000d24:	ea4c 0404 	orrmi.w	r4, ip, r4
 8000d28:	60d4      	str	r4, [r2, #12]
 8000d2a:	6854      	ldr	r4, [r2, #4]
 8000d2c:	03af      	lsls	r7, r5, #14
 8000d2e:	bf54      	ite	pl
 8000d30:	4034      	andpl	r4, r6
 8000d32:	ea4c 0404 	orrmi.w	r4, ip, r4
 8000d36:	6054      	str	r4, [r2, #4]
 8000d38:	6814      	ldr	r4, [r2, #0]
 8000d3a:	03ed      	lsls	r5, r5, #15
 8000d3c:	bf54      	ite	pl
 8000d3e:	4034      	andpl	r4, r6
 8000d40:	ea4c 0404 	orrmi.w	r4, ip, r4
 8000d44:	6014      	str	r4, [r2, #0]
 8000d46:	3301      	adds	r3, #1
 8000d48:	2b10      	cmp	r3, #16
 8000d4a:	f47f af43 	bne.w	8000bd4 <HAL_GPIO_Init+0xc>
 8000d4e:	b003      	add	sp, #12
 8000d50:	e8bd 8ff0 	ldmia.w	sp!, {r4, r5, r6, r7, r8, r9, sl, fp, pc}
 8000d54:	4654      	mov	r4, sl
 8000d56:	e7d4      	b.n	8000d02 <HAL_GPIO_Init+0x13a>
 8000d58:	2401      	movs	r4, #1
 8000d5a:	e7d2      	b.n	8000d02 <HAL_GPIO_Init+0x13a>
 8000d5c:	2402      	movs	r4, #2
 8000d5e:	e7d0      	b.n	8000d02 <HAL_GPIO_Init+0x13a>
 8000d60:	2403      	movs	r4, #3
 8000d62:	e7ce      	b.n	8000d02 <HAL_GPIO_Init+0x13a>
 8000d64:	2404      	movs	r4, #4
 8000d66:	e7cc      	b.n	8000d02 <HAL_GPIO_Init+0x13a>
 8000d68:	2405      	movs	r4, #5
 8000d6a:	e7ca      	b.n	8000d02 <HAL_GPIO_Init+0x13a>
 8000d6c:	2406      	movs	r4, #6
 8000d6e:	e7c8      	b.n	8000d02 <HAL_GPIO_Init+0x13a>
 8000d70:	40013c00 	.word	0x40013c00
 8000d74:	40020000 	.word	0x40020000
 8000d78:	40023800 	.word	0x40023800

08000d7c <HAL_GPIO_WritePin>:
 8000d7c:	b10a      	cbz	r2, 8000d82 <HAL_GPIO_WritePin+0x6>
 8000d7e:	6181      	str	r1, [r0, #24]
 8000d80:	4770      	bx	lr
 8000d82:	0409      	lsls	r1, r1, #16
 8000d84:	e7fb      	b.n	8000d7e <HAL_GPIO_WritePin+0x2>

08000d86 <HAL_GPIO_TogglePin>:
 8000d86:	6943      	ldr	r3, [r0, #20]
 8000d88:	ea01 0203 	and.w	r2, r1, r3
 8000d8c:	ea21 0103 	bic.w	r1, r1, r3
 8000d90:	ea41 4102 	orr.w	r1, r1, r2, lsl #16
 8000d94:	6181      	str	r1, [r0, #24]
 8000d96:	4770      	bx	lr

08000d98 <HAL_HCD_HC_Init>:
 8000d98:	e92d 43f0 	stmdb	sp!, {r4, r5, r6, r7, r8, r9, lr}
 8000d9c:	4605      	mov	r5, r0
 8000d9e:	b085      	sub	sp, #20
 8000da0:	f895 42f8 	ldrb.w	r4, [r5, #760]	; 0x2f8
 8000da4:	f89d e030 	ldrb.w	lr, [sp, #48]	; 0x30
 8000da8:	f89d 8034 	ldrb.w	r8, [sp, #52]	; 0x34
 8000dac:	f8bd 9038 	ldrh.w	r9, [sp, #56]	; 0x38
 8000db0:	2c01      	cmp	r4, #1
 8000db2:	d025      	beq.n	8000e00 <HAL_HCD_HC_Init+0x68>
 8000db4:	2401      	movs	r4, #1
 8000db6:	f885 42f8 	strb.w	r4, [r5, #760]	; 0x2f8
 8000dba:	242c      	movs	r4, #44	; 0x2c
 8000dbc:	fb04 5401 	mla	r4, r4, r1, r5
 8000dc0:	09d0      	lsrs	r0, r2, #7
 8000dc2:	2700      	movs	r7, #0
 8000dc4:	f002 067f 	and.w	r6, r2, #127	; 0x7f
 8000dc8:	f884 703d 	strb.w	r7, [r4, #61]	; 0x3d
 8000dcc:	f884 3038 	strb.w	r3, [r4, #56]	; 0x38
 8000dd0:	f884 1039 	strb.w	r1, [r4, #57]	; 0x39
 8000dd4:	f884 803f 	strb.w	r8, [r4, #63]	; 0x3f
 8000dd8:	f884 603a 	strb.w	r6, [r4, #58]	; 0x3a
 8000ddc:	f884 003b 	strb.w	r0, [r4, #59]	; 0x3b
 8000de0:	f884 e03c 	strb.w	lr, [r4, #60]	; 0x3c
 8000de4:	f8a4 9040 	strh.w	r9, [r4, #64]	; 0x40
 8000de8:	6828      	ldr	r0, [r5, #0]
 8000dea:	f8cd e000 	str.w	lr, [sp]
 8000dee:	e9cd 8901 	strd	r8, r9, [sp, #4]
 8000df2:	f001 fcb5 	bl	8002760 <USB_HC_Init>
 8000df6:	f885 72f8 	strb.w	r7, [r5, #760]	; 0x2f8
 8000dfa:	b005      	add	sp, #20
 8000dfc:	e8bd 83f0 	ldmia.w	sp!, {r4, r5, r6, r7, r8, r9, pc}
 8000e00:	2002      	movs	r0, #2
 8000e02:	e7fa      	b.n	8000dfa <HAL_HCD_HC_Init+0x62>

08000e04 <HAL_HCD_HC_Halt>:
 8000e04:	b510      	push	{r4, lr}
 8000e06:	f890 32f8 	ldrb.w	r3, [r0, #760]	; 0x2f8
 8000e0a:	2b01      	cmp	r3, #1
 8000e0c:	4604      	mov	r4, r0
 8000e0e:	d009      	beq.n	8000e24 <HAL_HCD_HC_Halt+0x20>
 8000e10:	2301      	movs	r3, #1
 8000e12:	f880 32f8 	strb.w	r3, [r0, #760]	; 0x2f8
 8000e16:	6800      	ldr	r0, [r0, #0]
 8000e18:	f001 fd27 	bl	800286a <USB_HC_Halt>
 8000e1c:	2000      	movs	r0, #0
 8000e1e:	f884 02f8 	strb.w	r0, [r4, #760]	; 0x2f8
 8000e22:	bd10      	pop	{r4, pc}
 8000e24:	2002      	movs	r0, #2
 8000e26:	e7fc      	b.n	8000e22 <HAL_HCD_HC_Halt+0x1e>

08000e28 <HAL_HCD_Init>:
 8000e28:	e92d 41f0 	stmdb	sp!, {r4, r5, r6, r7, r8, lr}
 8000e2c:	4606      	mov	r6, r0
 8000e2e:	b08a      	sub	sp, #40	; 0x28
 8000e30:	2800      	cmp	r0, #0
 8000e32:	d043      	beq.n	8000ebc <HAL_HCD_Init+0x94>
 8000e34:	f890 32f9 	ldrb.w	r3, [r0, #761]	; 0x2f9
 8000e38:	6804      	ldr	r4, [r0, #0]
 8000e3a:	f003 02ff 	and.w	r2, r3, #255	; 0xff
 8000e3e:	b91b      	cbnz	r3, 8000e48 <HAL_HCD_Init+0x20>
 8000e40:	f880 22f8 	strb.w	r2, [r0, #760]	; 0x2f8
 8000e44:	f002 fdf4 	bl	8003a30 <HAL_HCD_MspInit>
 8000e48:	2303      	movs	r3, #3
 8000e4a:	f886 32f9 	strb.w	r3, [r6, #761]	; 0x2f9
 8000e4e:	6be3      	ldr	r3, [r4, #60]	; 0x3c
 8000e50:	4634      	mov	r4, r6
 8000e52:	f413 7380 	ands.w	r3, r3, #256	; 0x100
 8000e56:	f854 0b10 	ldr.w	r0, [r4], #16
 8000e5a:	bf08      	it	eq
 8000e5c:	6133      	streq	r3, [r6, #16]
 8000e5e:	f001 faed 	bl	800243c <USB_DisableGlobalInt>
 8000e62:	cc0f      	ldmia	r4!, {r0, r1, r2, r3}
 8000e64:	466d      	mov	r5, sp
 8000e66:	c50f      	stmia	r5!, {r0, r1, r2, r3}
 8000e68:	cc0f      	ldmia	r4!, {r0, r1, r2, r3}
 8000e6a:	c50f      	stmia	r5!, {r0, r1, r2, r3}
 8000e6c:	e894 0003 	ldmia.w	r4, {r0, r1}
 8000e70:	e885 0003 	stmia.w	r5, {r0, r1}
 8000e74:	f106 0804 	add.w	r8, r6, #4
 8000e78:	4637      	mov	r7, r6
 8000e7a:	e898 000e 	ldmia.w	r8, {r1, r2, r3}
 8000e7e:	6830      	ldr	r0, [r6, #0]
 8000e80:	f001 fa96 	bl	80023b0 <USB_CoreInit>
 8000e84:	f857 0b10 	ldr.w	r0, [r7], #16
 8000e88:	2101      	movs	r1, #1
 8000e8a:	f001 fadd 	bl	8002448 <USB_SetCurrentMode>
 8000e8e:	cf0f      	ldmia	r7!, {r0, r1, r2, r3}
 8000e90:	46ec      	mov	ip, sp
 8000e92:	e8ac 000f 	stmia.w	ip!, {r0, r1, r2, r3}
 8000e96:	cf0f      	ldmia	r7!, {r0, r1, r2, r3}
 8000e98:	e8ac 000f 	stmia.w	ip!, {r0, r1, r2, r3}
 8000e9c:	e894 0003 	ldmia.w	r4, {r0, r1}
 8000ea0:	e885 0003 	stmia.w	r5, {r0, r1}
 8000ea4:	e898 000e 	ldmia.w	r8, {r1, r2, r3}
 8000ea8:	6830      	ldr	r0, [r6, #0]
 8000eaa:	f001 fb83 	bl	80025b4 <USB_HostInit>
 8000eae:	2301      	movs	r3, #1
 8000eb0:	f886 32f9 	strb.w	r3, [r6, #761]	; 0x2f9
 8000eb4:	2000      	movs	r0, #0
 8000eb6:	b00a      	add	sp, #40	; 0x28
 8000eb8:	e8bd 81f0 	ldmia.w	sp!, {r4, r5, r6, r7, r8, pc}
 8000ebc:	2001      	movs	r0, #1
 8000ebe:	e7fa      	b.n	8000eb6 <HAL_HCD_Init+0x8e>

08000ec0 <HAL_HCD_HC_SubmitRequest>:
 8000ec0:	b4f0      	push	{r4, r5, r6, r7}
 8000ec2:	262c      	movs	r6, #44	; 0x2c
 8000ec4:	fb06 0601 	mla	r6, r6, r1, r0
 8000ec8:	f89d 7010 	ldrb.w	r7, [sp, #16]
 8000ecc:	9d05      	ldr	r5, [sp, #20]
 8000ece:	f8bd 4018 	ldrh.w	r4, [sp, #24]
 8000ed2:	f89d c01c 	ldrb.w	ip, [sp, #28]
 8000ed6:	f886 203b 	strb.w	r2, [r6, #59]	; 0x3b
 8000eda:	f886 303f 	strb.w	r3, [r6, #63]	; 0x3f
 8000ede:	b97f      	cbnz	r7, 8000f00 <HAL_HCD_HC_SubmitRequest+0x40>
 8000ee0:	2703      	movs	r7, #3
 8000ee2:	2b02      	cmp	r3, #2
 8000ee4:	f886 7042 	strb.w	r7, [r6, #66]	; 0x42
 8000ee8:	f886 c03d 	strb.w	ip, [r6, #61]	; 0x3d
 8000eec:	d03c      	beq.n	8000f68 <HAL_HCD_HC_SubmitRequest+0xa8>
 8000eee:	42bb      	cmp	r3, r7
 8000ef0:	d03a      	beq.n	8000f68 <HAL_HCD_HC_SubmitRequest+0xa8>
 8000ef2:	2b01      	cmp	r3, #1
 8000ef4:	d11f      	bne.n	8000f36 <HAL_HCD_HC_SubmitRequest+0x76>
 8000ef6:	232c      	movs	r3, #44	; 0x2c
 8000ef8:	fb03 0301 	mla	r3, r3, r1, r0
 8000efc:	2200      	movs	r2, #0
 8000efe:	e030      	b.n	8000f62 <HAL_HCD_HC_SubmitRequest+0xa2>
 8000f00:	f04f 0c02 	mov.w	ip, #2
 8000f04:	f886 c042 	strb.w	ip, [r6, #66]	; 0x42
 8000f08:	2b03      	cmp	r3, #3
 8000f0a:	d814      	bhi.n	8000f36 <HAL_HCD_HC_SubmitRequest+0x76>
 8000f0c:	a601      	add	r6, pc, #4	; (adr r6, 8000f14 <HAL_HCD_HC_SubmitRequest+0x54>)
 8000f0e:	f856 f023 	ldr.w	pc, [r6, r3, lsl #2]
 8000f12:	bf00      	nop
 8000f14:	08000f25 	.word	0x08000f25
 8000f18:	08000ef7 	.word	0x08000ef7
 8000f1c:	08000f69 	.word	0x08000f69
 8000f20:	08000f69 	.word	0x08000f69
 8000f24:	2f01      	cmp	r7, #1
 8000f26:	d106      	bne.n	8000f36 <HAL_HCD_HC_SubmitRequest+0x76>
 8000f28:	b92a      	cbnz	r2, 8000f36 <HAL_HCD_HC_SubmitRequest+0x76>
 8000f2a:	232c      	movs	r3, #44	; 0x2c
 8000f2c:	fb03 0301 	mla	r3, r3, r1, r0
 8000f30:	b99c      	cbnz	r4, 8000f5a <HAL_HCD_HC_SubmitRequest+0x9a>
 8000f32:	f883 7055 	strb.w	r7, [r3, #85]	; 0x55
 8000f36:	222c      	movs	r2, #44	; 0x2c
 8000f38:	fb02 0301 	mla	r3, r2, r1, r0
 8000f3c:	64dc      	str	r4, [r3, #76]	; 0x4c
 8000f3e:	2400      	movs	r4, #0
 8000f40:	f883 1039 	strb.w	r1, [r3, #57]	; 0x39
 8000f44:	f8a3 4060 	strh.w	r4, [r3, #96]	; 0x60
 8000f48:	4619      	mov	r1, r3
 8000f4a:	7c02      	ldrb	r2, [r0, #16]
 8000f4c:	645d      	str	r5, [r3, #68]	; 0x44
 8000f4e:	651c      	str	r4, [r3, #80]	; 0x50
 8000f50:	6800      	ldr	r0, [r0, #0]
 8000f52:	bcf0      	pop	{r4, r5, r6, r7}
 8000f54:	3138      	adds	r1, #56	; 0x38
 8000f56:	f001 bcf7 	b.w	8002948 <USB_HC_StartXfer>
 8000f5a:	f893 6055 	ldrb.w	r6, [r3, #85]	; 0x55
 8000f5e:	2e00      	cmp	r6, #0
 8000f60:	d1e9      	bne.n	8000f36 <HAL_HCD_HC_SubmitRequest+0x76>
 8000f62:	f883 2042 	strb.w	r2, [r3, #66]	; 0x42
 8000f66:	e7e6      	b.n	8000f36 <HAL_HCD_HC_SubmitRequest+0x76>
 8000f68:	232c      	movs	r3, #44	; 0x2c
 8000f6a:	fb03 0301 	mla	r3, r3, r1, r0
 8000f6e:	b92a      	cbnz	r2, 8000f7c <HAL_HCD_HC_SubmitRequest+0xbc>
 8000f70:	f893 6055 	ldrb.w	r6, [r3, #85]	; 0x55
 8000f74:	2e00      	cmp	r6, #0
 8000f76:	d0f4      	beq.n	8000f62 <HAL_HCD_HC_SubmitRequest+0xa2>
 8000f78:	2202      	movs	r2, #2
 8000f7a:	e7f2      	b.n	8000f62 <HAL_HCD_HC_SubmitRequest+0xa2>
 8000f7c:	f893 2054 	ldrb.w	r2, [r3, #84]	; 0x54
 8000f80:	2a00      	cmp	r2, #0
 8000f82:	d1f9      	bne.n	8000f78 <HAL_HCD_HC_SubmitRequest+0xb8>
 8000f84:	e7ed      	b.n	8000f62 <HAL_HCD_HC_SubmitRequest+0xa2>
 8000f86:	bf00      	nop

08000f88 <HAL_HCD_IRQHandler>:
 8000f88:	e92d 4ff0 	stmdb	sp!, {r4, r5, r6, r7, r8, r9, sl, fp, lr}
 8000f8c:	6807      	ldr	r7, [r0, #0]
 8000f8e:	b085      	sub	sp, #20
 8000f90:	4604      	mov	r4, r0
 8000f92:	4638      	mov	r0, r7
 8000f94:	f001 fb09 	bl	80025aa <USB_GetMode>
 8000f98:	2801      	cmp	r0, #1
 8000f9a:	f040 80f8 	bne.w	800118e <HAL_HCD_IRQHandler+0x206>
 8000f9e:	6820      	ldr	r0, [r4, #0]
 8000fa0:	f001 faff 	bl	80025a2 <USB_ReadInterrupts>
 8000fa4:	2800      	cmp	r0, #0
 8000fa6:	f000 80f2 	beq.w	800118e <HAL_HCD_IRQHandler+0x206>
 8000faa:	6820      	ldr	r0, [r4, #0]
 8000fac:	f001 faf9 	bl	80025a2 <USB_ReadInterrupts>
 8000fb0:	0285      	lsls	r5, r0, #10
 8000fb2:	bf48      	it	mi
 8000fb4:	6823      	ldrmi	r3, [r4, #0]
 8000fb6:	6820      	ldr	r0, [r4, #0]
 8000fb8:	bf44      	itt	mi
 8000fba:	f44f 1200 	movmi.w	r2, #2097152	; 0x200000
 8000fbe:	615a      	strmi	r2, [r3, #20]
 8000fc0:	f001 faef 	bl	80025a2 <USB_ReadInterrupts>
 8000fc4:	02c0      	lsls	r0, r0, #11
 8000fc6:	bf48      	it	mi
 8000fc8:	6823      	ldrmi	r3, [r4, #0]
 8000fca:	6820      	ldr	r0, [r4, #0]
 8000fcc:	bf44      	itt	mi
 8000fce:	f44f 1280 	movmi.w	r2, #1048576	; 0x100000
 8000fd2:	615a      	strmi	r2, [r3, #20]
 8000fd4:	f001 fae5 	bl	80025a2 <USB_ReadInterrupts>
 8000fd8:	0141      	lsls	r1, r0, #5
 8000fda:	bf48      	it	mi
 8000fdc:	6823      	ldrmi	r3, [r4, #0]
 8000fde:	6820      	ldr	r0, [r4, #0]
 8000fe0:	bf44      	itt	mi
 8000fe2:	f04f 6280 	movmi.w	r2, #67108864	; 0x4000000
 8000fe6:	615a      	strmi	r2, [r3, #20]
 8000fe8:	f001 fadb 	bl	80025a2 <USB_ReadInterrupts>
 8000fec:	0782      	lsls	r2, r0, #30
 8000fee:	bf48      	it	mi
 8000ff0:	6823      	ldrmi	r3, [r4, #0]
 8000ff2:	6820      	ldr	r0, [r4, #0]
 8000ff4:	bf44      	itt	mi
 8000ff6:	2202      	movmi	r2, #2
 8000ff8:	615a      	strmi	r2, [r3, #20]
 8000ffa:	f001 fad2 	bl	80025a2 <USB_ReadInterrupts>
 8000ffe:	0083      	lsls	r3, r0, #2
 8001000:	d515      	bpl.n	800102e <HAL_HCD_IRQHandler+0xa6>
 8001002:	6823      	ldr	r3, [r4, #0]
 8001004:	f04f 5200 	mov.w	r2, #536870912	; 0x20000000
 8001008:	615a      	str	r2, [r3, #20]
 800100a:	f8d7 3440 	ldr.w	r3, [r7, #1088]	; 0x440
 800100e:	07de      	lsls	r6, r3, #31
 8001010:	d40d      	bmi.n	800102e <HAL_HCD_IRQHandler+0xa6>
 8001012:	2110      	movs	r1, #16
 8001014:	4638      	mov	r0, r7
 8001016:	f001 fa47 	bl	80024a8 <USB_FlushTxFifo>
 800101a:	4638      	mov	r0, r7
 800101c:	f001 fa6a 	bl	80024f4 <USB_FlushRxFifo>
 8001020:	6820      	ldr	r0, [r4, #0]
 8001022:	2101      	movs	r1, #1
 8001024:	f001 fb32 	bl	800268c <USB_InitFSLSPClkSel>
 8001028:	4620      	mov	r0, r4
 800102a:	f002 fd51 	bl	8003ad0 <HAL_HCD_Disconnect_Callback>
 800102e:	6820      	ldr	r0, [r4, #0]
 8001030:	f001 fab7 	bl	80025a2 <USB_ReadInterrupts>
 8001034:	01c5      	lsls	r5, r0, #7
 8001036:	d53d      	bpl.n	80010b4 <HAL_HCD_IRQHandler+0x12c>
 8001038:	6825      	ldr	r5, [r4, #0]
 800103a:	f8d5 3440 	ldr.w	r3, [r5, #1088]	; 0x440
 800103e:	9302      	str	r3, [sp, #8]
 8001040:	f8d5 3440 	ldr.w	r3, [r5, #1088]	; 0x440
 8001044:	9303      	str	r3, [sp, #12]
 8001046:	9b03      	ldr	r3, [sp, #12]
 8001048:	f023 032e 	bic.w	r3, r3, #46	; 0x2e
 800104c:	9303      	str	r3, [sp, #12]
 800104e:	9b02      	ldr	r3, [sp, #8]
 8001050:	0798      	lsls	r0, r3, #30
 8001052:	d509      	bpl.n	8001068 <HAL_HCD_IRQHandler+0xe0>
 8001054:	9b02      	ldr	r3, [sp, #8]
 8001056:	07d9      	lsls	r1, r3, #31
 8001058:	d502      	bpl.n	8001060 <HAL_HCD_IRQHandler+0xd8>
 800105a:	4620      	mov	r0, r4
 800105c:	f002 fd34 	bl	8003ac8 <HAL_HCD_Connect_Callback>
 8001060:	9b03      	ldr	r3, [sp, #12]
 8001062:	f043 0302 	orr.w	r3, r3, #2
 8001066:	9303      	str	r3, [sp, #12]
 8001068:	9b02      	ldr	r3, [sp, #8]
 800106a:	071a      	lsls	r2, r3, #28
 800106c:	d518      	bpl.n	80010a0 <HAL_HCD_IRQHandler+0x118>
 800106e:	9b03      	ldr	r3, [sp, #12]
 8001070:	f043 0308 	orr.w	r3, r3, #8
 8001074:	9303      	str	r3, [sp, #12]
 8001076:	9b02      	ldr	r3, [sp, #8]
 8001078:	075b      	lsls	r3, r3, #29
 800107a:	f140 8093 	bpl.w	80011a4 <HAL_HCD_IRQHandler+0x21c>
 800107e:	69a1      	ldr	r1, [r4, #24]
 8001080:	2902      	cmp	r1, #2
 8001082:	f040 8087 	bne.w	8001194 <HAL_HCD_IRQHandler+0x20c>
 8001086:	9b02      	ldr	r3, [sp, #8]
 8001088:	6820      	ldr	r0, [r4, #0]
 800108a:	f403 23c0 	and.w	r3, r3, #393216	; 0x60000
 800108e:	f5b3 2f80 	cmp.w	r3, #262144	; 0x40000
 8001092:	bf18      	it	ne
 8001094:	2101      	movne	r1, #1
 8001096:	f001 faf9 	bl	800268c <USB_InitFSLSPClkSel>
 800109a:	4620      	mov	r0, r4
 800109c:	f002 fd1d 	bl	8003ada <HAL_HCD_PortEnabled_Callback>
 80010a0:	9b02      	ldr	r3, [sp, #8]
 80010a2:	069e      	lsls	r6, r3, #26
 80010a4:	bf42      	ittt	mi
 80010a6:	9b03      	ldrmi	r3, [sp, #12]
 80010a8:	f043 0320 	orrmi.w	r3, r3, #32
 80010ac:	9303      	strmi	r3, [sp, #12]
 80010ae:	9b03      	ldr	r3, [sp, #12]
 80010b0:	f8c5 3440 	str.w	r3, [r5, #1088]	; 0x440
 80010b4:	6820      	ldr	r0, [r4, #0]
 80010b6:	f001 fa74 	bl	80025a2 <USB_ReadInterrupts>
 80010ba:	0705      	lsls	r5, r0, #28
 80010bc:	d505      	bpl.n	80010ca <HAL_HCD_IRQHandler+0x142>
 80010be:	4620      	mov	r0, r4
 80010c0:	f002 fcfe 	bl	8003ac0 <HAL_HCD_SOF_Callback>
 80010c4:	6823      	ldr	r3, [r4, #0]
 80010c6:	2208      	movs	r2, #8
 80010c8:	615a      	str	r2, [r3, #20]
 80010ca:	6820      	ldr	r0, [r4, #0]
 80010cc:	f001 fa69 	bl	80025a2 <USB_ReadInterrupts>
 80010d0:	06c0      	lsls	r0, r0, #27
 80010d2:	d544      	bpl.n	800115e <HAL_HCD_IRQHandler+0x1d6>
 80010d4:	6826      	ldr	r6, [r4, #0]
 80010d6:	69b3      	ldr	r3, [r6, #24]
 80010d8:	f023 0310 	bic.w	r3, r3, #16
 80010dc:	61b3      	str	r3, [r6, #24]
 80010de:	6a33      	ldr	r3, [r6, #32]
 80010e0:	f3c3 4243 	ubfx	r2, r3, #17, #4
 80010e4:	2a02      	cmp	r2, #2
 80010e6:	d135      	bne.n	8001154 <HAL_HCD_IRQHandler+0x1cc>
 80010e8:	f3c3 190a 	ubfx	r9, r3, #4, #11
 80010ec:	f1b9 0f00 	cmp.w	r9, #0
 80010f0:	d030      	beq.n	8001154 <HAL_HCD_IRQHandler+0x1cc>
 80010f2:	f003 080f 	and.w	r8, r3, #15
 80010f6:	252c      	movs	r5, #44	; 0x2c
 80010f8:	fb05 4508 	mla	r5, r5, r8, r4
 80010fc:	6c69      	ldr	r1, [r5, #68]	; 0x44
 80010fe:	b349      	cbz	r1, 8001154 <HAL_HCD_IRQHandler+0x1cc>
 8001100:	6d2b      	ldr	r3, [r5, #80]	; 0x50
 8001102:	6cea      	ldr	r2, [r5, #76]	; 0x4c
 8001104:	444b      	add	r3, r9
 8001106:	4293      	cmp	r3, r2
 8001108:	d850      	bhi.n	80011ac <HAL_HCD_IRQHandler+0x224>
 800110a:	464a      	mov	r2, r9
 800110c:	4630      	mov	r0, r6
 800110e:	f001 fa28 	bl	8002562 <USB_ReadPacket>
 8001112:	6c6b      	ldr	r3, [r5, #68]	; 0x44
 8001114:	f8b5 1040 	ldrh.w	r1, [r5, #64]	; 0x40
 8001118:	444b      	add	r3, r9
 800111a:	646b      	str	r3, [r5, #68]	; 0x44
 800111c:	f506 66a0 	add.w	r6, r6, #1280	; 0x500
 8001120:	6d2b      	ldr	r3, [r5, #80]	; 0x50
 8001122:	ea4f 1248 	mov.w	r2, r8, lsl #5
 8001126:	eb06 1848 	add.w	r8, r6, r8, lsl #5
 800112a:	444b      	add	r3, r9
 800112c:	4589      	cmp	r9, r1
 800112e:	652b      	str	r3, [r5, #80]	; 0x50
 8001130:	f8d8 3010 	ldr.w	r3, [r8, #16]
 8001134:	d10e      	bne.n	8001154 <HAL_HCD_IRQHandler+0x1cc>
 8001136:	f3c3 43c9 	ubfx	r3, r3, #19, #10
 800113a:	b15b      	cbz	r3, 8001154 <HAL_HCD_IRQHandler+0x1cc>
 800113c:	58b3      	ldr	r3, [r6, r2]
 800113e:	f023 4380 	bic.w	r3, r3, #1073741824	; 0x40000000
 8001142:	f043 4300 	orr.w	r3, r3, #2147483648	; 0x80000000
 8001146:	50b3      	str	r3, [r6, r2]
 8001148:	f895 3054 	ldrb.w	r3, [r5, #84]	; 0x54
 800114c:	f083 0301 	eor.w	r3, r3, #1
 8001150:	f885 3054 	strb.w	r3, [r5, #84]	; 0x54
 8001154:	6822      	ldr	r2, [r4, #0]
 8001156:	6993      	ldr	r3, [r2, #24]
 8001158:	f043 0310 	orr.w	r3, r3, #16
 800115c:	6193      	str	r3, [r2, #24]
 800115e:	6820      	ldr	r0, [r4, #0]
 8001160:	f001 fa1f 	bl	80025a2 <USB_ReadInterrupts>
 8001164:	0181      	lsls	r1, r0, #6
 8001166:	d512      	bpl.n	800118e <HAL_HCD_IRQHandler+0x206>
 8001168:	6820      	ldr	r0, [r4, #0]
 800116a:	f001 fb79 	bl	8002860 <USB_HC_ReadInterrupt>
 800116e:	f507 63a0 	add.w	r3, r7, #1280	; 0x500
 8001172:	9001      	str	r0, [sp, #4]
 8001174:	9300      	str	r3, [sp, #0]
 8001176:	f04f 0a00 	mov.w	sl, #0
 800117a:	262c      	movs	r6, #44	; 0x2c
 800117c:	f04f 0802 	mov.w	r8, #2
 8001180:	68a3      	ldr	r3, [r4, #8]
 8001182:	6820      	ldr	r0, [r4, #0]
 8001184:	4553      	cmp	r3, sl
 8001186:	d815      	bhi.n	80011b4 <HAL_HCD_IRQHandler+0x22c>
 8001188:	f04f 7300 	mov.w	r3, #33554432	; 0x2000000
 800118c:	6143      	str	r3, [r0, #20]
 800118e:	b005      	add	sp, #20
 8001190:	e8bd 8ff0 	ldmia.w	sp!, {r4, r5, r6, r7, r8, r9, sl, fp, pc}
 8001194:	68e3      	ldr	r3, [r4, #12]
 8001196:	2b01      	cmp	r3, #1
 8001198:	bf04      	itt	eq
 800119a:	f64e 2260 	movweq	r2, #60000	; 0xea60
 800119e:	f8c5 2404 	streq.w	r2, [r5, #1028]	; 0x404
 80011a2:	e77a      	b.n	800109a <HAL_HCD_IRQHandler+0x112>
 80011a4:	4620      	mov	r0, r4
 80011a6:	f002 fc9c 	bl	8003ae2 <HAL_HCD_PortDisabled_Callback>
 80011aa:	e779      	b.n	80010a0 <HAL_HCD_IRQHandler+0x118>
 80011ac:	2304      	movs	r3, #4
 80011ae:	f885 3060 	strb.w	r3, [r5, #96]	; 0x60
 80011b2:	e7cf      	b.n	8001154 <HAL_HCD_IRQHandler+0x1cc>
 80011b4:	9a01      	ldr	r2, [sp, #4]
 80011b6:	f00a 030f 	and.w	r3, sl, #15
 80011ba:	fa22 f303 	lsr.w	r3, r2, r3
 80011be:	07da      	lsls	r2, r3, #31
 80011c0:	f140 8091 	bpl.w	80012e6 <HAL_HCD_IRQHandler+0x35e>
 80011c4:	9b00      	ldr	r3, [sp, #0]
 80011c6:	fa5f f58a 	uxtb.w	r5, sl
 80011ca:	681a      	ldr	r2, [r3, #0]
 80011cc:	f500 67a0 	add.w	r7, r0, #1280	; 0x500
 80011d0:	eb07 1b45 	add.w	fp, r7, r5, lsl #5
 80011d4:	f412 4f00 	tst.w	r2, #32768	; 0x8000
 80011d8:	ea4f 1945 	mov.w	r9, r5, lsl #5
 80011dc:	f8db 2008 	ldr.w	r2, [fp, #8]
 80011e0:	f000 80fe 	beq.w	80013e0 <HAL_HCD_IRQHandler+0x458>
 80011e4:	0753      	lsls	r3, r2, #29
 80011e6:	d506      	bpl.n	80011f6 <HAL_HCD_IRQHandler+0x26e>
 80011e8:	2204      	movs	r2, #4
 80011ea:	f8cb 2008 	str.w	r2, [fp, #8]
 80011ee:	2106      	movs	r1, #6
 80011f0:	fb06 4205 	mla	r2, r6, r5, r4
 80011f4:	e00a      	b.n	800120c <HAL_HCD_IRQHandler+0x284>
 80011f6:	f8db 2008 	ldr.w	r2, [fp, #8]
 80011fa:	05d1      	lsls	r1, r2, #23
 80011fc:	d50c      	bpl.n	8001218 <HAL_HCD_IRQHandler+0x290>
 80011fe:	f44f 7280 	mov.w	r2, #256	; 0x100
 8001202:	f8cb 2008 	str.w	r2, [fp, #8]
 8001206:	2107      	movs	r1, #7
 8001208:	fb06 4205 	mla	r2, r6, r5, r4
 800120c:	f882 1061 	strb.w	r1, [r2, #97]	; 0x61
 8001210:	4629      	mov	r1, r5
 8001212:	f001 fb2a 	bl	800286a <USB_HC_Halt>
 8001216:	e006      	b.n	8001226 <HAL_HCD_IRQHandler+0x29e>
 8001218:	f8db 2008 	ldr.w	r2, [fp, #8]
 800121c:	0692      	lsls	r2, r2, #26
 800121e:	d50f      	bpl.n	8001240 <HAL_HCD_IRQHandler+0x2b8>
 8001220:	2220      	movs	r2, #32
 8001222:	f8cb 2008 	str.w	r2, [fp, #8]
 8001226:	f8db 2008 	ldr.w	r2, [fp, #8]
 800122a:	0593      	lsls	r3, r2, #22
 800122c:	d525      	bpl.n	800127a <HAL_HCD_IRQHandler+0x2f2>
 800122e:	6820      	ldr	r0, [r4, #0]
 8001230:	4629      	mov	r1, r5
 8001232:	f001 fb1a 	bl	800286a <USB_HC_Halt>
 8001236:	f44f 7200 	mov.w	r2, #512	; 0x200
 800123a:	f8cb 2008 	str.w	r2, [fp, #8]
 800123e:	e052      	b.n	80012e6 <HAL_HCD_IRQHandler+0x35e>
 8001240:	f8db 2008 	ldr.w	r2, [fp, #8]
 8001244:	0713      	lsls	r3, r2, #28
 8001246:	d506      	bpl.n	8001256 <HAL_HCD_IRQHandler+0x2ce>
 8001248:	2208      	movs	r2, #8
 800124a:	f8cb 2008 	str.w	r2, [fp, #8]
 800124e:	2105      	movs	r1, #5
 8001250:	fb06 4205 	mla	r2, r6, r5, r4
 8001254:	e7da      	b.n	800120c <HAL_HCD_IRQHandler+0x284>
 8001256:	f8db 2008 	ldr.w	r2, [fp, #8]
 800125a:	0551      	lsls	r1, r2, #21
 800125c:	d507      	bpl.n	800126e <HAL_HCD_IRQHandler+0x2e6>
 800125e:	f44f 6280 	mov.w	r2, #1024	; 0x400
 8001262:	f8cb 2008 	str.w	r2, [fp, #8]
 8001266:	2108      	movs	r1, #8
 8001268:	fb06 4205 	mla	r2, r6, r5, r4
 800126c:	e7ce      	b.n	800120c <HAL_HCD_IRQHandler+0x284>
 800126e:	f8db 2008 	ldr.w	r2, [fp, #8]
 8001272:	0612      	lsls	r2, r2, #24
 8001274:	d5d7      	bpl.n	8001226 <HAL_HCD_IRQHandler+0x29e>
 8001276:	2280      	movs	r2, #128	; 0x80
 8001278:	e7b7      	b.n	80011ea <HAL_HCD_IRQHandler+0x262>
 800127a:	f8db 2008 	ldr.w	r2, [fp, #8]
 800127e:	07d0      	lsls	r0, r2, #31
 8001280:	d546      	bpl.n	8001310 <HAL_HCD_IRQHandler+0x388>
 8001282:	6922      	ldr	r2, [r4, #16]
 8001284:	b142      	cbz	r2, 8001298 <HAL_HCD_IRQHandler+0x310>
 8001286:	fb06 4005 	mla	r0, r6, r5, r4
 800128a:	f8db 1010 	ldr.w	r1, [fp, #16]
 800128e:	6c82      	ldr	r2, [r0, #72]	; 0x48
 8001290:	f3c1 0112 	ubfx	r1, r1, #0, #19
 8001294:	1a52      	subs	r2, r2, r1
 8001296:	6502      	str	r2, [r0, #80]	; 0x50
 8001298:	fb06 4105 	mla	r1, r6, r5, r4
 800129c:	2201      	movs	r2, #1
 800129e:	2000      	movs	r0, #0
 80012a0:	f881 2061 	strb.w	r2, [r1, #97]	; 0x61
 80012a4:	65c8      	str	r0, [r1, #92]	; 0x5c
 80012a6:	f8cb 2008 	str.w	r2, [fp, #8]
 80012aa:	f891 203f 	ldrb.w	r2, [r1, #63]	; 0x3f
 80012ae:	f012 02fd 	ands.w	r2, r2, #253	; 0xfd
 80012b2:	d11e      	bne.n	80012f2 <HAL_HCD_IRQHandler+0x36a>
 80012b4:	6820      	ldr	r0, [r4, #0]
 80012b6:	4629      	mov	r1, r5
 80012b8:	f001 fad7 	bl	800286a <USB_HC_Halt>
 80012bc:	2210      	movs	r2, #16
 80012be:	f8cb 2008 	str.w	r2, [fp, #8]
 80012c2:	6923      	ldr	r3, [r4, #16]
 80012c4:	2b01      	cmp	r3, #1
 80012c6:	fb06 4505 	mla	r5, r6, r5, r4
 80012ca:	d106      	bne.n	80012da <HAL_HCD_IRQHandler+0x352>
 80012cc:	f8b5 2040 	ldrh.w	r2, [r5, #64]	; 0x40
 80012d0:	6cab      	ldr	r3, [r5, #72]	; 0x48
 80012d2:	fbb3 f3f2 	udiv	r3, r3, r2
 80012d6:	07d9      	lsls	r1, r3, #31
 80012d8:	d505      	bpl.n	80012e6 <HAL_HCD_IRQHandler+0x35e>
 80012da:	f895 3054 	ldrb.w	r3, [r5, #84]	; 0x54
 80012de:	f083 0301 	eor.w	r3, r3, #1
 80012e2:	f885 3054 	strb.w	r3, [r5, #84]	; 0x54
 80012e6:	9b00      	ldr	r3, [sp, #0]
 80012e8:	3320      	adds	r3, #32
 80012ea:	f10a 0a01 	add.w	sl, sl, #1
 80012ee:	9300      	str	r3, [sp, #0]
 80012f0:	e746      	b.n	8001180 <HAL_HCD_IRQHandler+0x1f8>
 80012f2:	2a01      	cmp	r2, #1
 80012f4:	d1e5      	bne.n	80012c2 <HAL_HCD_IRQHandler+0x33a>
 80012f6:	f857 3009 	ldr.w	r3, [r7, r9]
 80012fa:	f043 5300 	orr.w	r3, r3, #536870912	; 0x20000000
 80012fe:	f847 3009 	str.w	r3, [r7, r9]
 8001302:	4620      	mov	r0, r4
 8001304:	f881 2060 	strb.w	r2, [r1, #96]	; 0x60
 8001308:	4629      	mov	r1, r5
 800130a:	f002 fbe5 	bl	8003ad8 <HAL_HCD_HC_NotifyURBChange_Callback>
 800130e:	e7d8      	b.n	80012c2 <HAL_HCD_IRQHandler+0x33a>
 8001310:	f8db 3008 	ldr.w	r3, [fp, #8]
 8001314:	f013 0302 	ands.w	r3, r3, #2
 8001318:	d046      	beq.n	80013a8 <HAL_HCD_IRQHandler+0x420>
 800131a:	fb06 4105 	mla	r1, r6, r5, r4
 800131e:	f891 2061 	ldrb.w	r2, [r1, #97]	; 0x61
 8001322:	2a01      	cmp	r2, #1
 8001324:	d10c      	bne.n	8001340 <HAL_HCD_IRQHandler+0x3b8>
 8001326:	f881 2060 	strb.w	r2, [r1, #96]	; 0x60
 800132a:	fb06 4305 	mla	r3, r6, r5, r4
 800132e:	f8cb 8008 	str.w	r8, [fp, #8]
 8001332:	f893 2060 	ldrb.w	r2, [r3, #96]	; 0x60
 8001336:	4629      	mov	r1, r5
 8001338:	4620      	mov	r0, r4
 800133a:	f002 fbcd 	bl	8003ad8 <HAL_HCD_HC_NotifyURBChange_Callback>
 800133e:	e7d2      	b.n	80012e6 <HAL_HCD_IRQHandler+0x35e>
 8001340:	3a03      	subs	r2, #3
 8001342:	2a05      	cmp	r2, #5
 8001344:	d8f1      	bhi.n	800132a <HAL_HCD_IRQHandler+0x3a2>
 8001346:	a101      	add	r1, pc, #4	; (adr r1, 800134c <HAL_HCD_IRQHandler+0x3c4>)
 8001348:	f851 f022 	ldr.w	pc, [r1, r2, lsl #2]
 800134c:	0800137d 	.word	0x0800137d
 8001350:	0800132b 	.word	0x0800132b
 8001354:	080015c7 	.word	0x080015c7
 8001358:	08001365 	.word	0x08001365
 800135c:	08001397 	.word	0x08001397
 8001360:	08001365 	.word	0x08001365
 8001364:	fb06 4105 	mla	r1, r6, r5, r4
 8001368:	6dca      	ldr	r2, [r1, #92]	; 0x5c
 800136a:	3201      	adds	r2, #1
 800136c:	2a02      	cmp	r2, #2
 800136e:	65ca      	str	r2, [r1, #92]	; 0x5c
 8001370:	f240 812d 	bls.w	80015ce <HAL_HCD_IRQHandler+0x646>
 8001374:	2200      	movs	r2, #0
 8001376:	65ca      	str	r2, [r1, #92]	; 0x5c
 8001378:	2204      	movs	r2, #4
 800137a:	e7d4      	b.n	8001326 <HAL_HCD_IRQHandler+0x39e>
 800137c:	fb06 4205 	mla	r2, r6, r5, r4
 8001380:	f882 8060 	strb.w	r8, [r2, #96]	; 0x60
 8001384:	f857 2009 	ldr.w	r2, [r7, r9]
 8001388:	f022 4280 	bic.w	r2, r2, #1073741824	; 0x40000000
 800138c:	f042 4200 	orr.w	r2, r2, #2147483648	; 0x80000000
 8001390:	f847 2009 	str.w	r2, [r7, r9]
 8001394:	e7c9      	b.n	800132a <HAL_HCD_IRQHandler+0x3a2>
 8001396:	fb06 4205 	mla	r2, r6, r5, r4
 800139a:	6dd1      	ldr	r1, [r2, #92]	; 0x5c
 800139c:	3101      	adds	r1, #1
 800139e:	65d1      	str	r1, [r2, #92]	; 0x5c
 80013a0:	2104      	movs	r1, #4
 80013a2:	f882 1060 	strb.w	r1, [r2, #96]	; 0x60
 80013a6:	e7c0      	b.n	800132a <HAL_HCD_IRQHandler+0x3a2>
 80013a8:	f8db 2008 	ldr.w	r2, [fp, #8]
 80013ac:	6820      	ldr	r0, [r4, #0]
 80013ae:	06d2      	lsls	r2, r2, #27
 80013b0:	d599      	bpl.n	80012e6 <HAL_HCD_IRQHandler+0x35e>
 80013b2:	fb06 4105 	mla	r1, r6, r5, r4
 80013b6:	f891 203f 	ldrb.w	r2, [r1, #63]	; 0x3f
 80013ba:	2a03      	cmp	r2, #3
 80013bc:	d105      	bne.n	80013ca <HAL_HCD_IRQHandler+0x442>
 80013be:	65cb      	str	r3, [r1, #92]	; 0x5c
 80013c0:	4629      	mov	r1, r5
 80013c2:	f001 fa52 	bl	800286a <USB_HC_Halt>
 80013c6:	2210      	movs	r2, #16
 80013c8:	e737      	b.n	800123a <HAL_HCD_IRQHandler+0x2b2>
 80013ca:	f012 02fd 	ands.w	r2, r2, #253	; 0xfd
 80013ce:	d1fa      	bne.n	80013c6 <HAL_HCD_IRQHandler+0x43e>
 80013d0:	65ca      	str	r2, [r1, #92]	; 0x5c
 80013d2:	6922      	ldr	r2, [r4, #16]
 80013d4:	2a00      	cmp	r2, #0
 80013d6:	d1f6      	bne.n	80013c6 <HAL_HCD_IRQHandler+0x43e>
 80013d8:	2203      	movs	r2, #3
 80013da:	f881 2061 	strb.w	r2, [r1, #97]	; 0x61
 80013de:	e7ef      	b.n	80013c0 <HAL_HCD_IRQHandler+0x438>
 80013e0:	f012 0204 	ands.w	r2, r2, #4
 80013e4:	d008      	beq.n	80013f8 <HAL_HCD_IRQHandler+0x470>
 80013e6:	2204      	movs	r2, #4
 80013e8:	f8cb 2008 	str.w	r2, [fp, #8]
 80013ec:	fb06 4305 	mla	r3, r6, r5, r4
 80013f0:	2206      	movs	r2, #6
 80013f2:	f883 2061 	strb.w	r2, [r3, #97]	; 0x61
 80013f6:	e011      	b.n	800141c <HAL_HCD_IRQHandler+0x494>
 80013f8:	f8db 1008 	ldr.w	r1, [fp, #8]
 80013fc:	068b      	lsls	r3, r1, #26
 80013fe:	d511      	bpl.n	8001424 <HAL_HCD_IRQHandler+0x49c>
 8001400:	2120      	movs	r1, #32
 8001402:	fb06 4305 	mla	r3, r6, r5, r4
 8001406:	f8cb 1008 	str.w	r1, [fp, #8]
 800140a:	f893 103d 	ldrb.w	r1, [r3, #61]	; 0x3d
 800140e:	2901      	cmp	r1, #1
 8001410:	f47f af69 	bne.w	80012e6 <HAL_HCD_IRQHandler+0x35e>
 8001414:	f883 203d 	strb.w	r2, [r3, #61]	; 0x3d
 8001418:	f883 8060 	strb.w	r8, [r3, #96]	; 0x60
 800141c:	4629      	mov	r1, r5
 800141e:	f001 fa24 	bl	800286a <USB_HC_Halt>
 8001422:	e760      	b.n	80012e6 <HAL_HCD_IRQHandler+0x35e>
 8001424:	f8db 1008 	ldr.w	r1, [fp, #8]
 8001428:	f411 7100 	ands.w	r1, r1, #512	; 0x200
 800142c:	d004      	beq.n	8001438 <HAL_HCD_IRQHandler+0x4b0>
 800142e:	f44f 7200 	mov.w	r2, #512	; 0x200
 8001432:	f8cb 2008 	str.w	r2, [fp, #8]
 8001436:	e7f1      	b.n	800141c <HAL_HCD_IRQHandler+0x494>
 8001438:	f8db 3008 	ldr.w	r3, [fp, #8]
 800143c:	f013 0301 	ands.w	r3, r3, #1
 8001440:	d012      	beq.n	8001468 <HAL_HCD_IRQHandler+0x4e0>
 8001442:	fb06 4205 	mla	r2, r6, r5, r4
 8001446:	fb06 4305 	mla	r3, r6, r5, r4
 800144a:	65d1      	str	r1, [r2, #92]	; 0x5c
 800144c:	f8db 1008 	ldr.w	r1, [fp, #8]
 8001450:	0649      	lsls	r1, r1, #25
 8001452:	bf41      	itttt	mi
 8001454:	2101      	movmi	r1, #1
 8001456:	f882 103d 	strbmi.w	r1, [r2, #61]	; 0x3d
 800145a:	2240      	movmi	r2, #64	; 0x40
 800145c:	f8cb 2008 	strmi.w	r2, [fp, #8]
 8001460:	2201      	movs	r2, #1
 8001462:	f8cb 2008 	str.w	r2, [fp, #8]
 8001466:	e7c4      	b.n	80013f2 <HAL_HCD_IRQHandler+0x46a>
 8001468:	f8db 2008 	ldr.w	r2, [fp, #8]
 800146c:	0652      	lsls	r2, r2, #25
 800146e:	d50d      	bpl.n	800148c <HAL_HCD_IRQHandler+0x504>
 8001470:	fb06 4205 	mla	r2, r6, r5, r4
 8001474:	2104      	movs	r1, #4
 8001476:	f882 1061 	strb.w	r1, [r2, #97]	; 0x61
 800147a:	2101      	movs	r1, #1
 800147c:	f882 103d 	strb.w	r1, [r2, #61]	; 0x3d
 8001480:	65d3      	str	r3, [r2, #92]	; 0x5c
 8001482:	4629      	mov	r1, r5
 8001484:	f001 f9f1 	bl	800286a <USB_HC_Halt>
 8001488:	2240      	movs	r2, #64	; 0x40
 800148a:	e6d6      	b.n	800123a <HAL_HCD_IRQHandler+0x2b2>
 800148c:	f8db 2008 	ldr.w	r2, [fp, #8]
 8001490:	0711      	lsls	r1, r2, #28
 8001492:	d506      	bpl.n	80014a2 <HAL_HCD_IRQHandler+0x51a>
 8001494:	2208      	movs	r2, #8
 8001496:	f8cb 2008 	str.w	r2, [fp, #8]
 800149a:	fb06 4305 	mla	r3, r6, r5, r4
 800149e:	2205      	movs	r2, #5
 80014a0:	e7a7      	b.n	80013f2 <HAL_HCD_IRQHandler+0x46a>
 80014a2:	f8db 2008 	ldr.w	r2, [fp, #8]
 80014a6:	06d2      	lsls	r2, r2, #27
 80014a8:	d514      	bpl.n	80014d4 <HAL_HCD_IRQHandler+0x54c>
 80014aa:	fb06 4205 	mla	r2, r6, r5, r4
 80014ae:	2100      	movs	r1, #0
 80014b0:	65d1      	str	r1, [r2, #92]	; 0x5c
 80014b2:	2103      	movs	r1, #3
 80014b4:	f882 1061 	strb.w	r1, [r2, #97]	; 0x61
 80014b8:	f892 103d 	ldrb.w	r1, [r2, #61]	; 0x3d
 80014bc:	2900      	cmp	r1, #0
 80014be:	f47f af7f 	bne.w	80013c0 <HAL_HCD_IRQHandler+0x438>
 80014c2:	f892 103c 	ldrb.w	r1, [r2, #60]	; 0x3c
 80014c6:	2900      	cmp	r1, #0
 80014c8:	f47f af7a 	bne.w	80013c0 <HAL_HCD_IRQHandler+0x438>
 80014cc:	2101      	movs	r1, #1
 80014ce:	f882 103d 	strb.w	r1, [r2, #61]	; 0x3d
 80014d2:	e775      	b.n	80013c0 <HAL_HCD_IRQHandler+0x438>
 80014d4:	f8db 2008 	ldr.w	r2, [fp, #8]
 80014d8:	0613      	lsls	r3, r2, #24
 80014da:	d51f      	bpl.n	800151c <HAL_HCD_IRQHandler+0x594>
 80014dc:	6922      	ldr	r2, [r4, #16]
 80014de:	b94a      	cbnz	r2, 80014f4 <HAL_HCD_IRQHandler+0x56c>
 80014e0:	fb06 4205 	mla	r2, r6, r5, r4
 80014e4:	2106      	movs	r1, #6
 80014e6:	f882 1061 	strb.w	r1, [r2, #97]	; 0x61
 80014ea:	4629      	mov	r1, r5
 80014ec:	f001 f9bd 	bl	800286a <USB_HC_Halt>
 80014f0:	2280      	movs	r2, #128	; 0x80
 80014f2:	e6a2      	b.n	800123a <HAL_HCD_IRQHandler+0x2b2>
 80014f4:	fb06 4105 	mla	r1, r6, r5, r4
 80014f8:	6dca      	ldr	r2, [r1, #92]	; 0x5c
 80014fa:	3201      	adds	r2, #1
 80014fc:	2a02      	cmp	r2, #2
 80014fe:	65ca      	str	r2, [r1, #92]	; 0x5c
 8001500:	d909      	bls.n	8001516 <HAL_HCD_IRQHandler+0x58e>
 8001502:	2200      	movs	r2, #0
 8001504:	65ca      	str	r2, [r1, #92]	; 0x5c
 8001506:	2204      	movs	r2, #4
 8001508:	f881 2060 	strb.w	r2, [r1, #96]	; 0x60
 800150c:	4620      	mov	r0, r4
 800150e:	4629      	mov	r1, r5
 8001510:	f002 fae2 	bl	8003ad8 <HAL_HCD_HC_NotifyURBChange_Callback>
 8001514:	e7ec      	b.n	80014f0 <HAL_HCD_IRQHandler+0x568>
 8001516:	f881 8060 	strb.w	r8, [r1, #96]	; 0x60
 800151a:	e7e9      	b.n	80014f0 <HAL_HCD_IRQHandler+0x568>
 800151c:	f8db 2008 	ldr.w	r2, [fp, #8]
 8001520:	0551      	lsls	r1, r2, #21
 8001522:	d50a      	bpl.n	800153a <HAL_HCD_IRQHandler+0x5b2>
 8001524:	fb06 4205 	mla	r2, r6, r5, r4
 8001528:	2108      	movs	r1, #8
 800152a:	f882 1061 	strb.w	r1, [r2, #97]	; 0x61
 800152e:	4629      	mov	r1, r5
 8001530:	f001 f99b 	bl	800286a <USB_HC_Halt>
 8001534:	f44f 6280 	mov.w	r2, #1024	; 0x400
 8001538:	e67f      	b.n	800123a <HAL_HCD_IRQHandler+0x2b2>
 800153a:	f8db 2008 	ldr.w	r2, [fp, #8]
 800153e:	0792      	lsls	r2, r2, #30
 8001540:	f57f aed1 	bpl.w	80012e6 <HAL_HCD_IRQHandler+0x35e>
 8001544:	fb06 4205 	mla	r2, r6, r5, r4
 8001548:	f892 1061 	ldrb.w	r1, [r2, #97]	; 0x61
 800154c:	2901      	cmp	r1, #1
 800154e:	d121      	bne.n	8001594 <HAL_HCD_IRQHandler+0x60c>
 8001550:	f882 1060 	strb.w	r1, [r2, #96]	; 0x60
 8001554:	f892 103f 	ldrb.w	r1, [r2, #63]	; 0x3f
 8001558:	3902      	subs	r1, #2
 800155a:	2901      	cmp	r1, #1
 800155c:	f63f aee5 	bhi.w	800132a <HAL_HCD_IRQHandler+0x3a2>
 8001560:	6921      	ldr	r1, [r4, #16]
 8001562:	b931      	cbnz	r1, 8001572 <HAL_HCD_IRQHandler+0x5ea>
 8001564:	f892 1055 	ldrb.w	r1, [r2, #85]	; 0x55
 8001568:	f081 0101 	eor.w	r1, r1, #1
 800156c:	f882 1055 	strb.w	r1, [r2, #85]	; 0x55
 8001570:	e6db      	b.n	800132a <HAL_HCD_IRQHandler+0x3a2>
 8001572:	2901      	cmp	r1, #1
 8001574:	f47f aed9 	bne.w	800132a <HAL_HCD_IRQHandler+0x3a2>
 8001578:	6cd1      	ldr	r1, [r2, #76]	; 0x4c
 800157a:	2900      	cmp	r1, #0
 800157c:	f43f aed5 	beq.w	800132a <HAL_HCD_IRQHandler+0x3a2>
 8001580:	f8b2 0040 	ldrh.w	r0, [r2, #64]	; 0x40
 8001584:	3901      	subs	r1, #1
 8001586:	4401      	add	r1, r0
 8001588:	fbb1 f1f0 	udiv	r1, r1, r0
 800158c:	07cb      	lsls	r3, r1, #31
 800158e:	f57f aecc 	bpl.w	800132a <HAL_HCD_IRQHandler+0x3a2>
 8001592:	e7e7      	b.n	8001564 <HAL_HCD_IRQHandler+0x5dc>
 8001594:	3903      	subs	r1, #3
 8001596:	2905      	cmp	r1, #5
 8001598:	f63f aec7 	bhi.w	800132a <HAL_HCD_IRQHandler+0x3a2>
 800159c:	a201      	add	r2, pc, #4	; (adr r2, 80015a4 <HAL_HCD_IRQHandler+0x61c>)
 800159e:	f852 f021 	ldr.w	pc, [r2, r1, lsl #2]
 80015a2:	bf00      	nop
 80015a4:	080015bd 	.word	0x080015bd
 80015a8:	080015bd 	.word	0x080015bd
 80015ac:	080015c7 	.word	0x080015c7
 80015b0:	08001365 	.word	0x08001365
 80015b4:	0800132b 	.word	0x0800132b
 80015b8:	08001365 	.word	0x08001365
 80015bc:	fb06 4205 	mla	r2, r6, r5, r4
 80015c0:	f882 8060 	strb.w	r8, [r2, #96]	; 0x60
 80015c4:	e6b1      	b.n	800132a <HAL_HCD_IRQHandler+0x3a2>
 80015c6:	fb06 4205 	mla	r2, r6, r5, r4
 80015ca:	2105      	movs	r1, #5
 80015cc:	e6e9      	b.n	80013a2 <HAL_HCD_IRQHandler+0x41a>
 80015ce:	f881 8060 	strb.w	r8, [r1, #96]	; 0x60
 80015d2:	e6d7      	b.n	8001384 <HAL_HCD_IRQHandler+0x3fc>

080015d4 <HAL_HCD_Start>:
 80015d4:	b510      	push	{r4, lr}
 80015d6:	f890 32f8 	ldrb.w	r3, [r0, #760]	; 0x2f8
 80015da:	2b01      	cmp	r3, #1
 80015dc:	4604      	mov	r4, r0
 80015de:	d00c      	beq.n	80015fa <HAL_HCD_Start+0x26>
 80015e0:	2101      	movs	r1, #1
 80015e2:	f880 12f8 	strb.w	r1, [r0, #760]	; 0x2f8
 80015e6:	6800      	ldr	r0, [r0, #0]
 80015e8:	f001 f88a 	bl	8002700 <USB_DriveVbus>
 80015ec:	6820      	ldr	r0, [r4, #0]
 80015ee:	f000 ff1f 	bl	8002430 <USB_EnableGlobalInt>
 80015f2:	2000      	movs	r0, #0
 80015f4:	f884 02f8 	strb.w	r0, [r4, #760]	; 0x2f8
 80015f8:	bd10      	pop	{r4, pc}
 80015fa:	2002      	movs	r0, #2
 80015fc:	e7fc      	b.n	80015f8 <HAL_HCD_Start+0x24>

080015fe <HAL_HCD_Stop>:
 80015fe:	b510      	push	{r4, lr}
 8001600:	f890 32f8 	ldrb.w	r3, [r0, #760]	; 0x2f8
 8001604:	2b01      	cmp	r3, #1
 8001606:	4604      	mov	r4, r0
 8001608:	d009      	beq.n	800161e <HAL_HCD_Stop+0x20>
 800160a:	2301      	movs	r3, #1
 800160c:	f880 32f8 	strb.w	r3, [r0, #760]	; 0x2f8
 8001610:	6800      	ldr	r0, [r0, #0]
 8001612:	f001 fa3f 	bl	8002a94 <USB_StopHost>
 8001616:	2000      	movs	r0, #0
 8001618:	f884 02f8 	strb.w	r0, [r4, #760]	; 0x2f8
 800161c:	bd10      	pop	{r4, pc}
 800161e:	2002      	movs	r0, #2
 8001620:	e7fc      	b.n	800161c <HAL_HCD_Stop+0x1e>

08001622 <HAL_HCD_ResetPort>:
 8001622:	6800      	ldr	r0, [r0, #0]
 8001624:	f001 b84e 	b.w	80026c4 <USB_ResetPort>

08001628 <HAL_HCD_HC_GetURBState>:
 8001628:	232c      	movs	r3, #44	; 0x2c
 800162a:	fb03 0101 	mla	r1, r3, r1, r0
 800162e:	f891 0060 	ldrb.w	r0, [r1, #96]	; 0x60
 8001632:	4770      	bx	lr

08001634 <HAL_HCD_HC_GetXferCount>:
 8001634:	232c      	movs	r3, #44	; 0x2c
 8001636:	fb03 0101 	mla	r1, r3, r1, r0
 800163a:	6d08      	ldr	r0, [r1, #80]	; 0x50
 800163c:	4770      	bx	lr

0800163e <HAL_HCD_GetCurrentFrame>:
 800163e:	6800      	ldr	r0, [r0, #0]
 8001640:	f001 b889 	b.w	8002756 <USB_GetCurrentFrame>

08001644 <HAL_HCD_GetCurrentSpeed>:
 8001644:	6800      	ldr	r0, [r0, #0]
 8001646:	f001 b87b 	b.w	8002740 <USB_GetHostSpeed>
	...

0800164c <HAL_I2C_Init>:
 800164c:	b570      	push	{r4, r5, r6, lr}
 800164e:	4604      	mov	r4, r0
 8001650:	b908      	cbnz	r0, 8001656 <HAL_I2C_Init+0xa>
 8001652:	2001      	movs	r0, #1
 8001654:	bd70      	pop	{r4, r5, r6, pc}
 8001656:	f890 303d 	ldrb.w	r3, [r0, #61]	; 0x3d
 800165a:	f003 02ff 	and.w	r2, r3, #255	; 0xff
 800165e:	b91b      	cbnz	r3, 8001668 <HAL_I2C_Init+0x1c>
 8001660:	f880 203c 	strb.w	r2, [r0, #60]	; 0x3c
 8001664:	f7ff f8b8 	bl	80007d8 <HAL_I2C_MspInit>
 8001668:	2324      	movs	r3, #36	; 0x24
 800166a:	f884 303d 	strb.w	r3, [r4, #61]	; 0x3d
 800166e:	6823      	ldr	r3, [r4, #0]
 8001670:	681a      	ldr	r2, [r3, #0]
 8001672:	f022 0201 	bic.w	r2, r2, #1
 8001676:	601a      	str	r2, [r3, #0]
 8001678:	681a      	ldr	r2, [r3, #0]
 800167a:	f442 4200 	orr.w	r2, r2, #32768	; 0x8000
 800167e:	601a      	str	r2, [r3, #0]
 8001680:	681a      	ldr	r2, [r3, #0]
 8001682:	f422 4200 	bic.w	r2, r2, #32768	; 0x8000
 8001686:	601a      	str	r2, [r3, #0]
 8001688:	f000 fd42 	bl	8002110 <HAL_RCC_GetPCLK1Freq>
 800168c:	4b3f      	ldr	r3, [pc, #252]	; (800178c <HAL_I2C_Init+0x140>)
 800168e:	6865      	ldr	r5, [r4, #4]
 8001690:	429d      	cmp	r5, r3
 8001692:	bf94      	ite	ls
 8001694:	4b3e      	ldrls	r3, [pc, #248]	; (8001790 <HAL_I2C_Init+0x144>)
 8001696:	4b3f      	ldrhi	r3, [pc, #252]	; (8001794 <HAL_I2C_Init+0x148>)
 8001698:	4298      	cmp	r0, r3
 800169a:	bf8c      	ite	hi
 800169c:	2300      	movhi	r3, #0
 800169e:	2301      	movls	r3, #1
 80016a0:	2b00      	cmp	r3, #0
 80016a2:	d1d6      	bne.n	8001652 <HAL_I2C_Init+0x6>
 80016a4:	6822      	ldr	r2, [r4, #0]
 80016a6:	4e39      	ldr	r6, [pc, #228]	; (800178c <HAL_I2C_Init+0x140>)
 80016a8:	6851      	ldr	r1, [r2, #4]
 80016aa:	4b3b      	ldr	r3, [pc, #236]	; (8001798 <HAL_I2C_Init+0x14c>)
 80016ac:	fbb0 f3f3 	udiv	r3, r0, r3
 80016b0:	f021 013f 	bic.w	r1, r1, #63	; 0x3f
 80016b4:	4319      	orrs	r1, r3
 80016b6:	42b5      	cmp	r5, r6
 80016b8:	6051      	str	r1, [r2, #4]
 80016ba:	bf88      	it	hi
 80016bc:	f44f 7696 	movhi.w	r6, #300	; 0x12c
 80016c0:	6a11      	ldr	r1, [r2, #32]
 80016c2:	bf88      	it	hi
 80016c4:	4373      	mulhi	r3, r6
 80016c6:	f021 013f 	bic.w	r1, r1, #63	; 0x3f
 80016ca:	bf84      	itt	hi
 80016cc:	f44f 767a 	movhi.w	r6, #1000	; 0x3e8
 80016d0:	fbb3 f3f6 	udivhi	r3, r3, r6
 80016d4:	3301      	adds	r3, #1
 80016d6:	430b      	orrs	r3, r1
 80016d8:	6213      	str	r3, [r2, #32]
 80016da:	69d1      	ldr	r1, [r2, #28]
 80016dc:	1e43      	subs	r3, r0, #1
 80016de:	482b      	ldr	r0, [pc, #172]	; (800178c <HAL_I2C_Init+0x140>)
 80016e0:	f421 414f 	bic.w	r1, r1, #52992	; 0xcf00
 80016e4:	4285      	cmp	r5, r0
 80016e6:	f021 01ff 	bic.w	r1, r1, #255	; 0xff
 80016ea:	d832      	bhi.n	8001752 <HAL_I2C_Init+0x106>
 80016ec:	006d      	lsls	r5, r5, #1
 80016ee:	f640 70fc 	movw	r0, #4092	; 0xffc
 80016f2:	fbb3 f3f5 	udiv	r3, r3, r5
 80016f6:	3301      	adds	r3, #1
 80016f8:	4203      	tst	r3, r0
 80016fa:	d042      	beq.n	8001782 <HAL_I2C_Init+0x136>
 80016fc:	f3c3 030b 	ubfx	r3, r3, #0, #12
 8001700:	4319      	orrs	r1, r3
 8001702:	61d1      	str	r1, [r2, #28]
 8001704:	e9d4 3007 	ldrd	r3, r0, [r4, #28]
 8001708:	6811      	ldr	r1, [r2, #0]
 800170a:	4303      	orrs	r3, r0
 800170c:	f021 01c0 	bic.w	r1, r1, #192	; 0xc0
 8001710:	430b      	orrs	r3, r1
 8001712:	6013      	str	r3, [r2, #0]
 8001714:	6891      	ldr	r1, [r2, #8]
 8001716:	e9d4 0303 	ldrd	r0, r3, [r4, #12]
 800171a:	f421 4103 	bic.w	r1, r1, #33536	; 0x8300
 800171e:	4303      	orrs	r3, r0
 8001720:	f021 01ff 	bic.w	r1, r1, #255	; 0xff
 8001724:	430b      	orrs	r3, r1
 8001726:	6093      	str	r3, [r2, #8]
 8001728:	e9d4 3005 	ldrd	r3, r0, [r4, #20]
 800172c:	68d1      	ldr	r1, [r2, #12]
 800172e:	4303      	orrs	r3, r0
 8001730:	f021 01ff 	bic.w	r1, r1, #255	; 0xff
 8001734:	430b      	orrs	r3, r1
 8001736:	60d3      	str	r3, [r2, #12]
 8001738:	6813      	ldr	r3, [r2, #0]
 800173a:	f043 0301 	orr.w	r3, r3, #1
 800173e:	6013      	str	r3, [r2, #0]
 8001740:	2000      	movs	r0, #0
 8001742:	2320      	movs	r3, #32
 8001744:	6420      	str	r0, [r4, #64]	; 0x40
 8001746:	f884 303d 	strb.w	r3, [r4, #61]	; 0x3d
 800174a:	6320      	str	r0, [r4, #48]	; 0x30
 800174c:	f884 003e 	strb.w	r0, [r4, #62]	; 0x3e
 8001750:	e780      	b.n	8001654 <HAL_I2C_Init+0x8>
 8001752:	68a0      	ldr	r0, [r4, #8]
 8001754:	b950      	cbnz	r0, 800176c <HAL_I2C_Init+0x120>
 8001756:	eb05 0545 	add.w	r5, r5, r5, lsl #1
 800175a:	fbb3 f3f5 	udiv	r3, r3, r5
 800175e:	3301      	adds	r3, #1
 8001760:	f3c3 030b 	ubfx	r3, r3, #0, #12
 8001764:	b17b      	cbz	r3, 8001786 <HAL_I2C_Init+0x13a>
 8001766:	f443 4300 	orr.w	r3, r3, #32768	; 0x8000
 800176a:	e7c9      	b.n	8001700 <HAL_I2C_Init+0xb4>
 800176c:	2019      	movs	r0, #25
 800176e:	4368      	muls	r0, r5
 8001770:	fbb3 f3f0 	udiv	r3, r3, r0
 8001774:	3301      	adds	r3, #1
 8001776:	f3c3 030b 	ubfx	r3, r3, #0, #12
 800177a:	b123      	cbz	r3, 8001786 <HAL_I2C_Init+0x13a>
 800177c:	f443 4340 	orr.w	r3, r3, #49152	; 0xc000
 8001780:	e7be      	b.n	8001700 <HAL_I2C_Init+0xb4>
 8001782:	2304      	movs	r3, #4
 8001784:	e7bc      	b.n	8001700 <HAL_I2C_Init+0xb4>
 8001786:	2301      	movs	r3, #1
 8001788:	e7ba      	b.n	8001700 <HAL_I2C_Init+0xb4>
 800178a:	bf00      	nop
 800178c:	000186a0 	.word	0x000186a0
 8001790:	001e847f 	.word	0x001e847f
 8001794:	003d08ff 	.word	0x003d08ff
 8001798:	000f4240 	.word	0x000f4240

0800179c <HAL_I2S_Init>:
 800179c:	b5f8      	push	{r3, r4, r5, r6, r7, lr}
 800179e:	4604      	mov	r4, r0
 80017a0:	2800      	cmp	r0, #0
 80017a2:	f000 808c 	beq.w	80018be <HAL_I2S_Init+0x122>
 80017a6:	f890 3041 	ldrb.w	r3, [r0, #65]	; 0x41
 80017aa:	f003 02ff 	and.w	r2, r3, #255	; 0xff
 80017ae:	b92b      	cbnz	r3, 80017bc <HAL_I2S_Init+0x20>
 80017b0:	4b45      	ldr	r3, [pc, #276]	; (80018c8 <HAL_I2S_Init+0x12c>)
 80017b2:	f880 2040 	strb.w	r2, [r0, #64]	; 0x40
 80017b6:	6343      	str	r3, [r0, #52]	; 0x34
 80017b8:	f7ff f846 	bl	8000848 <HAL_I2S_MspInit>
 80017bc:	6822      	ldr	r2, [r4, #0]
 80017be:	2102      	movs	r1, #2
 80017c0:	f884 1041 	strb.w	r1, [r4, #65]	; 0x41
 80017c4:	69d3      	ldr	r3, [r2, #28]
 80017c6:	f423 637b 	bic.w	r3, r3, #4016	; 0xfb0
 80017ca:	f023 030f 	bic.w	r3, r3, #15
 80017ce:	61d3      	str	r3, [r2, #28]
 80017d0:	6963      	ldr	r3, [r4, #20]
 80017d2:	6211      	str	r1, [r2, #32]
 80017d4:	428b      	cmp	r3, r1
 80017d6:	68e2      	ldr	r2, [r4, #12]
 80017d8:	d073      	beq.n	80018c2 <HAL_I2S_Init+0x126>
 80017da:	68a3      	ldr	r3, [r4, #8]
 80017dc:	2a00      	cmp	r2, #0
 80017de:	bf0c      	ite	eq
 80017e0:	2510      	moveq	r5, #16
 80017e2:	2520      	movne	r5, #32
 80017e4:	2001      	movs	r0, #1
 80017e6:	2b20      	cmp	r3, #32
 80017e8:	bf98      	it	ls
 80017ea:	006d      	lslls	r5, r5, #1
 80017ec:	f000 fd38 	bl	8002260 <HAL_RCCEx_GetPeriphCLKFreq>
 80017f0:	6923      	ldr	r3, [r4, #16]
 80017f2:	6962      	ldr	r2, [r4, #20]
 80017f4:	f5b3 7f00 	cmp.w	r3, #512	; 0x200
 80017f8:	d159      	bne.n	80018ae <HAL_I2S_Init+0x112>
 80017fa:	68e3      	ldr	r3, [r4, #12]
 80017fc:	210a      	movs	r1, #10
 80017fe:	2b00      	cmp	r3, #0
 8001800:	d053      	beq.n	80018aa <HAL_I2S_Init+0x10e>
 8001802:	00ad      	lsls	r5, r5, #2
 8001804:	fbb0 f3f5 	udiv	r3, r0, r5
 8001808:	434b      	muls	r3, r1
 800180a:	fbb3 f3f2 	udiv	r3, r3, r2
 800180e:	220a      	movs	r2, #10
 8001810:	3305      	adds	r3, #5
 8001812:	fbb3 f3f2 	udiv	r3, r3, r2
 8001816:	f003 0201 	and.w	r2, r3, #1
 800181a:	085b      	lsrs	r3, r3, #1
 800181c:	1e99      	subs	r1, r3, #2
 800181e:	29fd      	cmp	r1, #253	; 0xfd
 8001820:	d849      	bhi.n	80018b6 <HAL_I2S_Init+0x11a>
 8001822:	0212      	lsls	r2, r2, #8
 8001824:	4313      	orrs	r3, r2
 8001826:	6922      	ldr	r2, [r4, #16]
 8001828:	6820      	ldr	r0, [r4, #0]
 800182a:	f8df c0ac 	ldr.w	ip, [pc, #172]	; 80018d8 <HAL_I2S_Init+0x13c>
 800182e:	68e6      	ldr	r6, [r4, #12]
 8001830:	69a5      	ldr	r5, [r4, #24]
 8001832:	4313      	orrs	r3, r2
 8001834:	6203      	str	r3, [r0, #32]
 8001836:	e9d4 2101 	ldrd	r2, r1, [r4, #4]
 800183a:	69c3      	ldr	r3, [r0, #28]
 800183c:	ea42 0701 	orr.w	r7, r2, r1
 8001840:	ea03 030c 	and.w	r3, r3, ip
 8001844:	433b      	orrs	r3, r7
 8001846:	4333      	orrs	r3, r6
 8001848:	432b      	orrs	r3, r5
 800184a:	f443 6300 	orr.w	r3, r3, #2048	; 0x800
 800184e:	61c3      	str	r3, [r0, #28]
 8001850:	6a23      	ldr	r3, [r4, #32]
 8001852:	2b01      	cmp	r3, #1
 8001854:	d123      	bne.n	800189e <HAL_I2S_Init+0x102>
 8001856:	4b1d      	ldr	r3, [pc, #116]	; (80018cc <HAL_I2S_Init+0x130>)
 8001858:	6363      	str	r3, [r4, #52]	; 0x34
 800185a:	4f1d      	ldr	r7, [pc, #116]	; (80018d0 <HAL_I2S_Init+0x134>)
 800185c:	4b1d      	ldr	r3, [pc, #116]	; (80018d4 <HAL_I2S_Init+0x138>)
 800185e:	4298      	cmp	r0, r3
 8001860:	bf18      	it	ne
 8001862:	f04f 2740 	movne.w	r7, #1073758208	; 0x40004000
 8001866:	f5b2 7f00 	cmp.w	r2, #512	; 0x200
 800186a:	69fb      	ldr	r3, [r7, #28]
 800186c:	ea03 030c 	and.w	r3, r3, ip
 8001870:	61fb      	str	r3, [r7, #28]
 8001872:	f04f 0302 	mov.w	r3, #2
 8001876:	623b      	str	r3, [r7, #32]
 8001878:	bf1c      	itt	ne
 800187a:	fab2 f382 	clzne	r3, r2
 800187e:	095b      	lsrne	r3, r3, #5
 8001880:	69f8      	ldr	r0, [r7, #28]
 8001882:	bf14      	ite	ne
 8001884:	021b      	lslne	r3, r3, #8
 8001886:	f44f 7380 	moveq.w	r3, #256	; 0x100
 800188a:	4331      	orrs	r1, r6
 800188c:	4319      	orrs	r1, r3
 800188e:	b280      	uxth	r0, r0
 8001890:	4329      	orrs	r1, r5
 8001892:	ea40 0301 	orr.w	r3, r0, r1
 8001896:	b29b      	uxth	r3, r3
 8001898:	f443 6300 	orr.w	r3, r3, #2048	; 0x800
 800189c:	61fb      	str	r3, [r7, #28]
 800189e:	2000      	movs	r0, #0
 80018a0:	2301      	movs	r3, #1
 80018a2:	6460      	str	r0, [r4, #68]	; 0x44
 80018a4:	f884 3041 	strb.w	r3, [r4, #65]	; 0x41
 80018a8:	bdf8      	pop	{r3, r4, r5, r6, r7, pc}
 80018aa:	00ed      	lsls	r5, r5, #3
 80018ac:	e7aa      	b.n	8001804 <HAL_I2S_Init+0x68>
 80018ae:	210a      	movs	r1, #10
 80018b0:	fbb0 f3f5 	udiv	r3, r0, r5
 80018b4:	e7a8      	b.n	8001808 <HAL_I2S_Init+0x6c>
 80018b6:	6c63      	ldr	r3, [r4, #68]	; 0x44
 80018b8:	f043 0310 	orr.w	r3, r3, #16
 80018bc:	6463      	str	r3, [r4, #68]	; 0x44
 80018be:	2001      	movs	r0, #1
 80018c0:	e7f2      	b.n	80018a8 <HAL_I2S_Init+0x10c>
 80018c2:	2200      	movs	r2, #0
 80018c4:	e7ae      	b.n	8001824 <HAL_I2S_Init+0x88>
 80018c6:	bf00      	nop
 80018c8:	080018e3 	.word	0x080018e3
 80018cc:	080019e1 	.word	0x080019e1
 80018d0:	40003400 	.word	0x40003400
 80018d4:	40003800 	.word	0x40003800
 80018d8:	fffff040 	.word	0xfffff040

080018dc <HAL_I2S_TxCpltCallback>:
 80018dc:	4770      	bx	lr

080018de <HAL_I2S_RxCpltCallback>:
 80018de:	4770      	bx	lr

080018e0 <HAL_I2S_ErrorCallback>:
 80018e0:	4770      	bx	lr

080018e2 <I2S_IRQHandler>:
 80018e2:	b51f      	push	{r0, r1, r2, r3, r4, lr}
 80018e4:	6803      	ldr	r3, [r0, #0]
 80018e6:	689a      	ldr	r2, [r3, #8]
 80018e8:	9201      	str	r2, [sp, #4]
 80018ea:	f890 2041 	ldrb.w	r2, [r0, #65]	; 0x41
 80018ee:	2a04      	cmp	r2, #4
 80018f0:	4604      	mov	r4, r0
 80018f2:	d136      	bne.n	8001962 <I2S_IRQHandler+0x80>
 80018f4:	9a01      	ldr	r2, [sp, #4]
 80018f6:	07d1      	lsls	r1, r2, #31
 80018f8:	d517      	bpl.n	800192a <I2S_IRQHandler+0x48>
 80018fa:	685a      	ldr	r2, [r3, #4]
 80018fc:	0652      	lsls	r2, r2, #25
 80018fe:	d514      	bpl.n	800192a <I2S_IRQHandler+0x48>
 8001900:	6ac2      	ldr	r2, [r0, #44]	; 0x2c
 8001902:	68d9      	ldr	r1, [r3, #12]
 8001904:	f822 1b02 	strh.w	r1, [r2], #2
 8001908:	62c2      	str	r2, [r0, #44]	; 0x2c
 800190a:	8e42      	ldrh	r2, [r0, #50]	; 0x32
 800190c:	3a01      	subs	r2, #1
 800190e:	b292      	uxth	r2, r2
 8001910:	8642      	strh	r2, [r0, #50]	; 0x32
 8001912:	8e42      	ldrh	r2, [r0, #50]	; 0x32
 8001914:	b292      	uxth	r2, r2
 8001916:	b942      	cbnz	r2, 800192a <I2S_IRQHandler+0x48>
 8001918:	685a      	ldr	r2, [r3, #4]
 800191a:	f022 0260 	bic.w	r2, r2, #96	; 0x60
 800191e:	605a      	str	r2, [r3, #4]
 8001920:	2301      	movs	r3, #1
 8001922:	f880 3041 	strb.w	r3, [r0, #65]	; 0x41
 8001926:	f7ff ffda 	bl	80018de <HAL_I2S_RxCpltCallback>
 800192a:	9b01      	ldr	r3, [sp, #4]
 800192c:	0659      	lsls	r1, r3, #25
 800192e:	d518      	bpl.n	8001962 <I2S_IRQHandler+0x80>
 8001930:	6823      	ldr	r3, [r4, #0]
 8001932:	685a      	ldr	r2, [r3, #4]
 8001934:	0692      	lsls	r2, r2, #26
 8001936:	d514      	bpl.n	8001962 <I2S_IRQHandler+0x80>
 8001938:	685a      	ldr	r2, [r3, #4]
 800193a:	f022 0260 	bic.w	r2, r2, #96	; 0x60
 800193e:	605a      	str	r2, [r3, #4]
 8001940:	2200      	movs	r2, #0
 8001942:	9202      	str	r2, [sp, #8]
 8001944:	68da      	ldr	r2, [r3, #12]
 8001946:	9202      	str	r2, [sp, #8]
 8001948:	689b      	ldr	r3, [r3, #8]
 800194a:	9302      	str	r3, [sp, #8]
 800194c:	9b02      	ldr	r3, [sp, #8]
 800194e:	2301      	movs	r3, #1
 8001950:	f884 3041 	strb.w	r3, [r4, #65]	; 0x41
 8001954:	6c63      	ldr	r3, [r4, #68]	; 0x44
 8001956:	f043 0302 	orr.w	r3, r3, #2
 800195a:	6463      	str	r3, [r4, #68]	; 0x44
 800195c:	4620      	mov	r0, r4
 800195e:	f7ff ffbf 	bl	80018e0 <HAL_I2S_ErrorCallback>
 8001962:	f894 3041 	ldrb.w	r3, [r4, #65]	; 0x41
 8001966:	2b03      	cmp	r3, #3
 8001968:	d136      	bne.n	80019d8 <I2S_IRQHandler+0xf6>
 800196a:	9b01      	ldr	r3, [sp, #4]
 800196c:	079b      	lsls	r3, r3, #30
 800196e:	d519      	bpl.n	80019a4 <I2S_IRQHandler+0xc2>
 8001970:	6822      	ldr	r2, [r4, #0]
 8001972:	6853      	ldr	r3, [r2, #4]
 8001974:	0618      	lsls	r0, r3, #24
 8001976:	d515      	bpl.n	80019a4 <I2S_IRQHandler+0xc2>
 8001978:	6a63      	ldr	r3, [r4, #36]	; 0x24
 800197a:	f833 1b02 	ldrh.w	r1, [r3], #2
 800197e:	60d1      	str	r1, [r2, #12]
 8001980:	6263      	str	r3, [r4, #36]	; 0x24
 8001982:	8d63      	ldrh	r3, [r4, #42]	; 0x2a
 8001984:	3b01      	subs	r3, #1
 8001986:	b29b      	uxth	r3, r3
 8001988:	8563      	strh	r3, [r4, #42]	; 0x2a
 800198a:	8d63      	ldrh	r3, [r4, #42]	; 0x2a
 800198c:	b29b      	uxth	r3, r3
 800198e:	b94b      	cbnz	r3, 80019a4 <I2S_IRQHandler+0xc2>
 8001990:	6853      	ldr	r3, [r2, #4]
 8001992:	f023 03a0 	bic.w	r3, r3, #160	; 0xa0
 8001996:	6053      	str	r3, [r2, #4]
 8001998:	2301      	movs	r3, #1
 800199a:	f884 3041 	strb.w	r3, [r4, #65]	; 0x41
 800199e:	4620      	mov	r0, r4
 80019a0:	f7ff ff9c 	bl	80018dc <HAL_I2S_TxCpltCallback>
 80019a4:	9b01      	ldr	r3, [sp, #4]
 80019a6:	0719      	lsls	r1, r3, #28
 80019a8:	d516      	bpl.n	80019d8 <I2S_IRQHandler+0xf6>
 80019aa:	6823      	ldr	r3, [r4, #0]
 80019ac:	685a      	ldr	r2, [r3, #4]
 80019ae:	0692      	lsls	r2, r2, #26
 80019b0:	d512      	bpl.n	80019d8 <I2S_IRQHandler+0xf6>
 80019b2:	685a      	ldr	r2, [r3, #4]
 80019b4:	f022 02a0 	bic.w	r2, r2, #160	; 0xa0
 80019b8:	605a      	str	r2, [r3, #4]
 80019ba:	2200      	movs	r2, #0
 80019bc:	9203      	str	r2, [sp, #12]
 80019be:	689b      	ldr	r3, [r3, #8]
 80019c0:	9303      	str	r3, [sp, #12]
 80019c2:	9b03      	ldr	r3, [sp, #12]
 80019c4:	2301      	movs	r3, #1
 80019c6:	f884 3041 	strb.w	r3, [r4, #65]	; 0x41
 80019ca:	6c63      	ldr	r3, [r4, #68]	; 0x44
 80019cc:	f043 0304 	orr.w	r3, r3, #4
 80019d0:	6463      	str	r3, [r4, #68]	; 0x44
 80019d2:	4620      	mov	r0, r4
 80019d4:	f7ff ff84 	bl	80018e0 <HAL_I2S_ErrorCallback>
 80019d8:	b004      	add	sp, #16
 80019da:	bd10      	pop	{r4, pc}

080019dc <HAL_I2SEx_TxRxCpltCallback>:
 80019dc:	4770      	bx	lr
	...

080019e0 <HAL_I2SEx_FullDuplex_IRQHandler>:
 80019e0:	b510      	push	{r4, lr}
 80019e2:	6802      	ldr	r2, [r0, #0]
 80019e4:	498e      	ldr	r1, [pc, #568]	; (8001c20 <HAL_I2SEx_FullDuplex_IRQHandler+0x240>)
 80019e6:	6893      	ldr	r3, [r2, #8]
 80019e8:	b086      	sub	sp, #24
 80019ea:	4604      	mov	r4, r0
 80019ec:	9300      	str	r3, [sp, #0]
 80019ee:	4b8d      	ldr	r3, [pc, #564]	; (8001c24 <HAL_I2SEx_FullDuplex_IRQHandler+0x244>)
 80019f0:	428a      	cmp	r2, r1
 80019f2:	bf18      	it	ne
 80019f4:	f04f 2340 	movne.w	r3, #1073758208	; 0x40004000
 80019f8:	6899      	ldr	r1, [r3, #8]
 80019fa:	9101      	str	r1, [sp, #4]
 80019fc:	6851      	ldr	r1, [r2, #4]
 80019fe:	9102      	str	r1, [sp, #8]
 8001a00:	6859      	ldr	r1, [r3, #4]
 8001a02:	9103      	str	r1, [sp, #12]
 8001a04:	6841      	ldr	r1, [r0, #4]
 8001a06:	f431 7100 	bics.w	r1, r1, #512	; 0x200
 8001a0a:	f040 8093 	bne.w	8001b34 <HAL_I2SEx_FullDuplex_IRQHandler+0x154>
 8001a0e:	9b00      	ldr	r3, [sp, #0]
 8001a10:	0799      	lsls	r1, r3, #30
 8001a12:	d51a      	bpl.n	8001a4a <HAL_I2SEx_FullDuplex_IRQHandler+0x6a>
 8001a14:	9b02      	ldr	r3, [sp, #8]
 8001a16:	061b      	lsls	r3, r3, #24
 8001a18:	d517      	bpl.n	8001a4a <HAL_I2SEx_FullDuplex_IRQHandler+0x6a>
 8001a1a:	6a43      	ldr	r3, [r0, #36]	; 0x24
 8001a1c:	1c99      	adds	r1, r3, #2
 8001a1e:	881b      	ldrh	r3, [r3, #0]
 8001a20:	6241      	str	r1, [r0, #36]	; 0x24
 8001a22:	60d3      	str	r3, [r2, #12]
 8001a24:	8d43      	ldrh	r3, [r0, #42]	; 0x2a
 8001a26:	3b01      	subs	r3, #1
 8001a28:	b29b      	uxth	r3, r3
 8001a2a:	8543      	strh	r3, [r0, #42]	; 0x2a
 8001a2c:	8d43      	ldrh	r3, [r0, #42]	; 0x2a
 8001a2e:	b29b      	uxth	r3, r3
 8001a30:	b95b      	cbnz	r3, 8001a4a <HAL_I2SEx_FullDuplex_IRQHandler+0x6a>
 8001a32:	6853      	ldr	r3, [r2, #4]
 8001a34:	f023 03a0 	bic.w	r3, r3, #160	; 0xa0
 8001a38:	6053      	str	r3, [r2, #4]
 8001a3a:	8e43      	ldrh	r3, [r0, #50]	; 0x32
 8001a3c:	b29b      	uxth	r3, r3
 8001a3e:	b923      	cbnz	r3, 8001a4a <HAL_I2SEx_FullDuplex_IRQHandler+0x6a>
 8001a40:	2301      	movs	r3, #1
 8001a42:	f880 3041 	strb.w	r3, [r0, #65]	; 0x41
 8001a46:	f7ff ffc9 	bl	80019dc <HAL_I2SEx_TxRxCpltCallback>
 8001a4a:	9b01      	ldr	r3, [sp, #4]
 8001a4c:	07d8      	lsls	r0, r3, #31
 8001a4e:	d522      	bpl.n	8001a96 <HAL_I2SEx_FullDuplex_IRQHandler+0xb6>
 8001a50:	9b03      	ldr	r3, [sp, #12]
 8001a52:	0659      	lsls	r1, r3, #25
 8001a54:	d51f      	bpl.n	8001a96 <HAL_I2SEx_FullDuplex_IRQHandler+0xb6>
 8001a56:	6821      	ldr	r1, [r4, #0]
 8001a58:	4a71      	ldr	r2, [pc, #452]	; (8001c20 <HAL_I2SEx_FullDuplex_IRQHandler+0x240>)
 8001a5a:	4b72      	ldr	r3, [pc, #456]	; (8001c24 <HAL_I2SEx_FullDuplex_IRQHandler+0x244>)
 8001a5c:	4291      	cmp	r1, r2
 8001a5e:	bf18      	it	ne
 8001a60:	f04f 2340 	movne.w	r3, #1073758208	; 0x40004000
 8001a64:	6ae2      	ldr	r2, [r4, #44]	; 0x2c
 8001a66:	68d9      	ldr	r1, [r3, #12]
 8001a68:	1c90      	adds	r0, r2, #2
 8001a6a:	62e0      	str	r0, [r4, #44]	; 0x2c
 8001a6c:	8011      	strh	r1, [r2, #0]
 8001a6e:	8e62      	ldrh	r2, [r4, #50]	; 0x32
 8001a70:	3a01      	subs	r2, #1
 8001a72:	b292      	uxth	r2, r2
 8001a74:	8662      	strh	r2, [r4, #50]	; 0x32
 8001a76:	8e62      	ldrh	r2, [r4, #50]	; 0x32
 8001a78:	b292      	uxth	r2, r2
 8001a7a:	b962      	cbnz	r2, 8001a96 <HAL_I2SEx_FullDuplex_IRQHandler+0xb6>
 8001a7c:	685a      	ldr	r2, [r3, #4]
 8001a7e:	f022 0260 	bic.w	r2, r2, #96	; 0x60
 8001a82:	605a      	str	r2, [r3, #4]
 8001a84:	8d63      	ldrh	r3, [r4, #42]	; 0x2a
 8001a86:	b29b      	uxth	r3, r3
 8001a88:	b92b      	cbnz	r3, 8001a96 <HAL_I2SEx_FullDuplex_IRQHandler+0xb6>
 8001a8a:	2301      	movs	r3, #1
 8001a8c:	f884 3041 	strb.w	r3, [r4, #65]	; 0x41
 8001a90:	4620      	mov	r0, r4
 8001a92:	f7ff ffa3 	bl	80019dc <HAL_I2SEx_TxRxCpltCallback>
 8001a96:	9b01      	ldr	r3, [sp, #4]
 8001a98:	065a      	lsls	r2, r3, #25
 8001a9a:	d522      	bpl.n	8001ae2 <HAL_I2SEx_FullDuplex_IRQHandler+0x102>
 8001a9c:	9b03      	ldr	r3, [sp, #12]
 8001a9e:	069b      	lsls	r3, r3, #26
 8001aa0:	d51f      	bpl.n	8001ae2 <HAL_I2SEx_FullDuplex_IRQHandler+0x102>
 8001aa2:	6823      	ldr	r3, [r4, #0]
 8001aa4:	495e      	ldr	r1, [pc, #376]	; (8001c20 <HAL_I2SEx_FullDuplex_IRQHandler+0x240>)
 8001aa6:	4a5f      	ldr	r2, [pc, #380]	; (8001c24 <HAL_I2SEx_FullDuplex_IRQHandler+0x244>)
 8001aa8:	428b      	cmp	r3, r1
 8001aaa:	bf18      	it	ne
 8001aac:	f04f 2240 	movne.w	r2, #1073758208	; 0x40004000
 8001ab0:	4620      	mov	r0, r4
 8001ab2:	6851      	ldr	r1, [r2, #4]
 8001ab4:	f021 0160 	bic.w	r1, r1, #96	; 0x60
 8001ab8:	6051      	str	r1, [r2, #4]
 8001aba:	685a      	ldr	r2, [r3, #4]
 8001abc:	f022 02a0 	bic.w	r2, r2, #160	; 0xa0
 8001ac0:	605a      	str	r2, [r3, #4]
 8001ac2:	2200      	movs	r2, #0
 8001ac4:	9204      	str	r2, [sp, #16]
 8001ac6:	68da      	ldr	r2, [r3, #12]
 8001ac8:	9204      	str	r2, [sp, #16]
 8001aca:	689b      	ldr	r3, [r3, #8]
 8001acc:	9304      	str	r3, [sp, #16]
 8001ace:	9b04      	ldr	r3, [sp, #16]
 8001ad0:	2301      	movs	r3, #1
 8001ad2:	f884 3041 	strb.w	r3, [r4, #65]	; 0x41
 8001ad6:	6c63      	ldr	r3, [r4, #68]	; 0x44
 8001ad8:	f043 0302 	orr.w	r3, r3, #2
 8001adc:	6463      	str	r3, [r4, #68]	; 0x44
 8001ade:	f7ff feff 	bl	80018e0 <HAL_I2S_ErrorCallback>
 8001ae2:	9b00      	ldr	r3, [sp, #0]
 8001ae4:	0718      	lsls	r0, r3, #28
 8001ae6:	f140 8098 	bpl.w	8001c1a <HAL_I2SEx_FullDuplex_IRQHandler+0x23a>
 8001aea:	9b02      	ldr	r3, [sp, #8]
 8001aec:	0699      	lsls	r1, r3, #26
 8001aee:	f140 8094 	bpl.w	8001c1a <HAL_I2SEx_FullDuplex_IRQHandler+0x23a>
 8001af2:	6823      	ldr	r3, [r4, #0]
 8001af4:	494a      	ldr	r1, [pc, #296]	; (8001c20 <HAL_I2SEx_FullDuplex_IRQHandler+0x240>)
 8001af6:	685a      	ldr	r2, [r3, #4]
 8001af8:	f022 02a0 	bic.w	r2, r2, #160	; 0xa0
 8001afc:	605a      	str	r2, [r3, #4]
 8001afe:	4a49      	ldr	r2, [pc, #292]	; (8001c24 <HAL_I2SEx_FullDuplex_IRQHandler+0x244>)
 8001b00:	428b      	cmp	r3, r1
 8001b02:	bf18      	it	ne
 8001b04:	f04f 2240 	movne.w	r2, #1073758208	; 0x40004000
 8001b08:	6851      	ldr	r1, [r2, #4]
 8001b0a:	f021 0160 	bic.w	r1, r1, #96	; 0x60
 8001b0e:	6051      	str	r1, [r2, #4]
 8001b10:	2200      	movs	r2, #0
 8001b12:	9205      	str	r2, [sp, #20]
 8001b14:	689b      	ldr	r3, [r3, #8]
 8001b16:	9305      	str	r3, [sp, #20]
 8001b18:	9b05      	ldr	r3, [sp, #20]
 8001b1a:	2301      	movs	r3, #1
 8001b1c:	f884 3041 	strb.w	r3, [r4, #65]	; 0x41
 8001b20:	6c63      	ldr	r3, [r4, #68]	; 0x44
 8001b22:	4620      	mov	r0, r4
 8001b24:	f043 0304 	orr.w	r3, r3, #4
 8001b28:	6463      	str	r3, [r4, #68]	; 0x44
 8001b2a:	b006      	add	sp, #24
 8001b2c:	e8bd 4010 	ldmia.w	sp!, {r4, lr}
 8001b30:	f7ff bed6 	b.w	80018e0 <HAL_I2S_ErrorCallback>
 8001b34:	9a01      	ldr	r2, [sp, #4]
 8001b36:	0792      	lsls	r2, r2, #30
 8001b38:	d51a      	bpl.n	8001b70 <HAL_I2SEx_FullDuplex_IRQHandler+0x190>
 8001b3a:	9a03      	ldr	r2, [sp, #12]
 8001b3c:	0611      	lsls	r1, r2, #24
 8001b3e:	d517      	bpl.n	8001b70 <HAL_I2SEx_FullDuplex_IRQHandler+0x190>
 8001b40:	6a42      	ldr	r2, [r0, #36]	; 0x24
 8001b42:	1c91      	adds	r1, r2, #2
 8001b44:	8812      	ldrh	r2, [r2, #0]
 8001b46:	6241      	str	r1, [r0, #36]	; 0x24
 8001b48:	60da      	str	r2, [r3, #12]
 8001b4a:	8d42      	ldrh	r2, [r0, #42]	; 0x2a
 8001b4c:	3a01      	subs	r2, #1
 8001b4e:	b292      	uxth	r2, r2
 8001b50:	8542      	strh	r2, [r0, #42]	; 0x2a
 8001b52:	8d42      	ldrh	r2, [r0, #42]	; 0x2a
 8001b54:	b292      	uxth	r2, r2
 8001b56:	b95a      	cbnz	r2, 8001b70 <HAL_I2SEx_FullDuplex_IRQHandler+0x190>
 8001b58:	685a      	ldr	r2, [r3, #4]
 8001b5a:	f022 02a0 	bic.w	r2, r2, #160	; 0xa0
 8001b5e:	605a      	str	r2, [r3, #4]
 8001b60:	8e43      	ldrh	r3, [r0, #50]	; 0x32
 8001b62:	b29b      	uxth	r3, r3
 8001b64:	b923      	cbnz	r3, 8001b70 <HAL_I2SEx_FullDuplex_IRQHandler+0x190>
 8001b66:	2301      	movs	r3, #1
 8001b68:	f880 3041 	strb.w	r3, [r0, #65]	; 0x41
 8001b6c:	f7ff ff36 	bl	80019dc <HAL_I2SEx_TxRxCpltCallback>
 8001b70:	9b00      	ldr	r3, [sp, #0]
 8001b72:	07da      	lsls	r2, r3, #31
 8001b74:	d51c      	bpl.n	8001bb0 <HAL_I2SEx_FullDuplex_IRQHandler+0x1d0>
 8001b76:	9b02      	ldr	r3, [sp, #8]
 8001b78:	065b      	lsls	r3, r3, #25
 8001b7a:	d519      	bpl.n	8001bb0 <HAL_I2SEx_FullDuplex_IRQHandler+0x1d0>
 8001b7c:	6ae3      	ldr	r3, [r4, #44]	; 0x2c
 8001b7e:	6822      	ldr	r2, [r4, #0]
 8001b80:	1c98      	adds	r0, r3, #2
 8001b82:	68d1      	ldr	r1, [r2, #12]
 8001b84:	62e0      	str	r0, [r4, #44]	; 0x2c
 8001b86:	8019      	strh	r1, [r3, #0]
 8001b88:	8e63      	ldrh	r3, [r4, #50]	; 0x32
 8001b8a:	3b01      	subs	r3, #1
 8001b8c:	b29b      	uxth	r3, r3
 8001b8e:	8663      	strh	r3, [r4, #50]	; 0x32
 8001b90:	8e63      	ldrh	r3, [r4, #50]	; 0x32
 8001b92:	b29b      	uxth	r3, r3
 8001b94:	b963      	cbnz	r3, 8001bb0 <HAL_I2SEx_FullDuplex_IRQHandler+0x1d0>
 8001b96:	6853      	ldr	r3, [r2, #4]
 8001b98:	f023 0360 	bic.w	r3, r3, #96	; 0x60
 8001b9c:	6053      	str	r3, [r2, #4]
 8001b9e:	8d63      	ldrh	r3, [r4, #42]	; 0x2a
 8001ba0:	b29b      	uxth	r3, r3
 8001ba2:	b92b      	cbnz	r3, 8001bb0 <HAL_I2SEx_FullDuplex_IRQHandler+0x1d0>
 8001ba4:	2301      	movs	r3, #1
 8001ba6:	f884 3041 	strb.w	r3, [r4, #65]	; 0x41
 8001baa:	4620      	mov	r0, r4
 8001bac:	f7ff ff16 	bl	80019dc <HAL_I2SEx_TxRxCpltCallback>
 8001bb0:	9b00      	ldr	r3, [sp, #0]
 8001bb2:	0658      	lsls	r0, r3, #25
 8001bb4:	d51b      	bpl.n	8001bee <HAL_I2SEx_FullDuplex_IRQHandler+0x20e>
 8001bb6:	9b02      	ldr	r3, [sp, #8]
 8001bb8:	0699      	lsls	r1, r3, #26
 8001bba:	d518      	bpl.n	8001bee <HAL_I2SEx_FullDuplex_IRQHandler+0x20e>
 8001bbc:	6822      	ldr	r2, [r4, #0]
 8001bbe:	4918      	ldr	r1, [pc, #96]	; (8001c20 <HAL_I2SEx_FullDuplex_IRQHandler+0x240>)
 8001bc0:	6853      	ldr	r3, [r2, #4]
 8001bc2:	f023 0360 	bic.w	r3, r3, #96	; 0x60
 8001bc6:	6053      	str	r3, [r2, #4]
 8001bc8:	4b16      	ldr	r3, [pc, #88]	; (8001c24 <HAL_I2SEx_FullDuplex_IRQHandler+0x244>)
 8001bca:	428a      	cmp	r2, r1
 8001bcc:	bf18      	it	ne
 8001bce:	f04f 2340 	movne.w	r3, #1073758208	; 0x40004000
 8001bd2:	4620      	mov	r0, r4
 8001bd4:	685a      	ldr	r2, [r3, #4]
 8001bd6:	f022 02a0 	bic.w	r2, r2, #160	; 0xa0
 8001bda:	605a      	str	r2, [r3, #4]
 8001bdc:	2301      	movs	r3, #1
 8001bde:	f884 3041 	strb.w	r3, [r4, #65]	; 0x41
 8001be2:	6c63      	ldr	r3, [r4, #68]	; 0x44
 8001be4:	f043 0302 	orr.w	r3, r3, #2
 8001be8:	6463      	str	r3, [r4, #68]	; 0x44
 8001bea:	f7ff fe79 	bl	80018e0 <HAL_I2S_ErrorCallback>
 8001bee:	9b01      	ldr	r3, [sp, #4]
 8001bf0:	071a      	lsls	r2, r3, #28
 8001bf2:	d512      	bpl.n	8001c1a <HAL_I2SEx_FullDuplex_IRQHandler+0x23a>
 8001bf4:	9b03      	ldr	r3, [sp, #12]
 8001bf6:	069b      	lsls	r3, r3, #26
 8001bf8:	d50f      	bpl.n	8001c1a <HAL_I2SEx_FullDuplex_IRQHandler+0x23a>
 8001bfa:	6822      	ldr	r2, [r4, #0]
 8001bfc:	4908      	ldr	r1, [pc, #32]	; (8001c20 <HAL_I2SEx_FullDuplex_IRQHandler+0x240>)
 8001bfe:	4b09      	ldr	r3, [pc, #36]	; (8001c24 <HAL_I2SEx_FullDuplex_IRQHandler+0x244>)
 8001c00:	428a      	cmp	r2, r1
 8001c02:	bf18      	it	ne
 8001c04:	f04f 2340 	movne.w	r3, #1073758208	; 0x40004000
 8001c08:	6859      	ldr	r1, [r3, #4]
 8001c0a:	f021 01a0 	bic.w	r1, r1, #160	; 0xa0
 8001c0e:	6059      	str	r1, [r3, #4]
 8001c10:	6853      	ldr	r3, [r2, #4]
 8001c12:	f023 0360 	bic.w	r3, r3, #96	; 0x60
 8001c16:	6053      	str	r3, [r2, #4]
 8001c18:	e77f      	b.n	8001b1a <HAL_I2SEx_FullDuplex_IRQHandler+0x13a>
 8001c1a:	b006      	add	sp, #24
 8001c1c:	bd10      	pop	{r4, pc}
 8001c1e:	bf00      	nop
 8001c20:	40003800 	.word	0x40003800
 8001c24:	40003400 	.word	0x40003400

08001c28 <HAL_RCC_OscConfig>:
 8001c28:	e92d 41f3 	stmdb	sp!, {r0, r1, r4, r5, r6, r7, r8, lr}
 8001c2c:	4604      	mov	r4, r0
 8001c2e:	b340      	cbz	r0, 8001c82 <HAL_RCC_OscConfig+0x5a>
 8001c30:	6803      	ldr	r3, [r0, #0]
 8001c32:	07dd      	lsls	r5, r3, #31
 8001c34:	d410      	bmi.n	8001c58 <HAL_RCC_OscConfig+0x30>
 8001c36:	6823      	ldr	r3, [r4, #0]
 8001c38:	0798      	lsls	r0, r3, #30
 8001c3a:	d45b      	bmi.n	8001cf4 <HAL_RCC_OscConfig+0xcc>
 8001c3c:	6823      	ldr	r3, [r4, #0]
 8001c3e:	071a      	lsls	r2, r3, #28
 8001c40:	f100 809d 	bmi.w	8001d7e <HAL_RCC_OscConfig+0x156>
 8001c44:	6823      	ldr	r3, [r4, #0]
 8001c46:	075b      	lsls	r3, r3, #29
 8001c48:	f100 80bd 	bmi.w	8001dc6 <HAL_RCC_OscConfig+0x19e>
 8001c4c:	69a0      	ldr	r0, [r4, #24]
 8001c4e:	2800      	cmp	r0, #0
 8001c50:	f040 8124 	bne.w	8001e9c <HAL_RCC_OscConfig+0x274>
 8001c54:	2000      	movs	r0, #0
 8001c56:	e02c      	b.n	8001cb2 <HAL_RCC_OscConfig+0x8a>
 8001c58:	4b8d      	ldr	r3, [pc, #564]	; (8001e90 <HAL_RCC_OscConfig+0x268>)
 8001c5a:	689a      	ldr	r2, [r3, #8]
 8001c5c:	f002 020c 	and.w	r2, r2, #12
 8001c60:	2a04      	cmp	r2, #4
 8001c62:	d007      	beq.n	8001c74 <HAL_RCC_OscConfig+0x4c>
 8001c64:	689a      	ldr	r2, [r3, #8]
 8001c66:	f002 020c 	and.w	r2, r2, #12
 8001c6a:	2a08      	cmp	r2, #8
 8001c6c:	d10b      	bne.n	8001c86 <HAL_RCC_OscConfig+0x5e>
 8001c6e:	685b      	ldr	r3, [r3, #4]
 8001c70:	0259      	lsls	r1, r3, #9
 8001c72:	d508      	bpl.n	8001c86 <HAL_RCC_OscConfig+0x5e>
 8001c74:	4b86      	ldr	r3, [pc, #536]	; (8001e90 <HAL_RCC_OscConfig+0x268>)
 8001c76:	681b      	ldr	r3, [r3, #0]
 8001c78:	039a      	lsls	r2, r3, #14
 8001c7a:	d5dc      	bpl.n	8001c36 <HAL_RCC_OscConfig+0xe>
 8001c7c:	6863      	ldr	r3, [r4, #4]
 8001c7e:	2b00      	cmp	r3, #0
 8001c80:	d1d9      	bne.n	8001c36 <HAL_RCC_OscConfig+0xe>
 8001c82:	2001      	movs	r0, #1
 8001c84:	e015      	b.n	8001cb2 <HAL_RCC_OscConfig+0x8a>
 8001c86:	6863      	ldr	r3, [r4, #4]
 8001c88:	4d81      	ldr	r5, [pc, #516]	; (8001e90 <HAL_RCC_OscConfig+0x268>)
 8001c8a:	f5b3 3f80 	cmp.w	r3, #65536	; 0x10000
 8001c8e:	d113      	bne.n	8001cb8 <HAL_RCC_OscConfig+0x90>
 8001c90:	682b      	ldr	r3, [r5, #0]
 8001c92:	f443 3380 	orr.w	r3, r3, #65536	; 0x10000
 8001c96:	602b      	str	r3, [r5, #0]
 8001c98:	f7fe ff16 	bl	8000ac8 <HAL_GetTick>
 8001c9c:	4e7c      	ldr	r6, [pc, #496]	; (8001e90 <HAL_RCC_OscConfig+0x268>)
 8001c9e:	4605      	mov	r5, r0
 8001ca0:	6833      	ldr	r3, [r6, #0]
 8001ca2:	039b      	lsls	r3, r3, #14
 8001ca4:	d4c7      	bmi.n	8001c36 <HAL_RCC_OscConfig+0xe>
 8001ca6:	f7fe ff0f 	bl	8000ac8 <HAL_GetTick>
 8001caa:	1b40      	subs	r0, r0, r5
 8001cac:	2864      	cmp	r0, #100	; 0x64
 8001cae:	d9f7      	bls.n	8001ca0 <HAL_RCC_OscConfig+0x78>
 8001cb0:	2003      	movs	r0, #3
 8001cb2:	b002      	add	sp, #8
 8001cb4:	e8bd 81f0 	ldmia.w	sp!, {r4, r5, r6, r7, r8, pc}
 8001cb8:	f5b3 2fa0 	cmp.w	r3, #327680	; 0x50000
 8001cbc:	d104      	bne.n	8001cc8 <HAL_RCC_OscConfig+0xa0>
 8001cbe:	682b      	ldr	r3, [r5, #0]
 8001cc0:	f443 2380 	orr.w	r3, r3, #262144	; 0x40000
 8001cc4:	602b      	str	r3, [r5, #0]
 8001cc6:	e7e3      	b.n	8001c90 <HAL_RCC_OscConfig+0x68>
 8001cc8:	682a      	ldr	r2, [r5, #0]
 8001cca:	f422 3280 	bic.w	r2, r2, #65536	; 0x10000
 8001cce:	602a      	str	r2, [r5, #0]
 8001cd0:	682a      	ldr	r2, [r5, #0]
 8001cd2:	f422 2280 	bic.w	r2, r2, #262144	; 0x40000
 8001cd6:	602a      	str	r2, [r5, #0]
 8001cd8:	2b00      	cmp	r3, #0
 8001cda:	d1dd      	bne.n	8001c98 <HAL_RCC_OscConfig+0x70>
 8001cdc:	f7fe fef4 	bl	8000ac8 <HAL_GetTick>
 8001ce0:	4606      	mov	r6, r0
 8001ce2:	682b      	ldr	r3, [r5, #0]
 8001ce4:	039f      	lsls	r7, r3, #14
 8001ce6:	d5a6      	bpl.n	8001c36 <HAL_RCC_OscConfig+0xe>
 8001ce8:	f7fe feee 	bl	8000ac8 <HAL_GetTick>
 8001cec:	1b80      	subs	r0, r0, r6
 8001cee:	2864      	cmp	r0, #100	; 0x64
 8001cf0:	d9f7      	bls.n	8001ce2 <HAL_RCC_OscConfig+0xba>
 8001cf2:	e7dd      	b.n	8001cb0 <HAL_RCC_OscConfig+0x88>
 8001cf4:	4b66      	ldr	r3, [pc, #408]	; (8001e90 <HAL_RCC_OscConfig+0x268>)
 8001cf6:	689a      	ldr	r2, [r3, #8]
 8001cf8:	f012 0f0c 	tst.w	r2, #12
 8001cfc:	d007      	beq.n	8001d0e <HAL_RCC_OscConfig+0xe6>
 8001cfe:	689a      	ldr	r2, [r3, #8]
 8001d00:	f002 020c 	and.w	r2, r2, #12
 8001d04:	2a08      	cmp	r2, #8
 8001d06:	d111      	bne.n	8001d2c <HAL_RCC_OscConfig+0x104>
 8001d08:	685b      	ldr	r3, [r3, #4]
 8001d0a:	025e      	lsls	r6, r3, #9
 8001d0c:	d40e      	bmi.n	8001d2c <HAL_RCC_OscConfig+0x104>
 8001d0e:	4a60      	ldr	r2, [pc, #384]	; (8001e90 <HAL_RCC_OscConfig+0x268>)
 8001d10:	6813      	ldr	r3, [r2, #0]
 8001d12:	079d      	lsls	r5, r3, #30
 8001d14:	d502      	bpl.n	8001d1c <HAL_RCC_OscConfig+0xf4>
 8001d16:	68e3      	ldr	r3, [r4, #12]
 8001d18:	2b01      	cmp	r3, #1
 8001d1a:	d1b2      	bne.n	8001c82 <HAL_RCC_OscConfig+0x5a>
 8001d1c:	6813      	ldr	r3, [r2, #0]
 8001d1e:	6921      	ldr	r1, [r4, #16]
 8001d20:	f023 03f8 	bic.w	r3, r3, #248	; 0xf8
 8001d24:	ea43 03c1 	orr.w	r3, r3, r1, lsl #3
 8001d28:	6013      	str	r3, [r2, #0]
 8001d2a:	e787      	b.n	8001c3c <HAL_RCC_OscConfig+0x14>
 8001d2c:	68e2      	ldr	r2, [r4, #12]
 8001d2e:	4b59      	ldr	r3, [pc, #356]	; (8001e94 <HAL_RCC_OscConfig+0x26c>)
 8001d30:	b1b2      	cbz	r2, 8001d60 <HAL_RCC_OscConfig+0x138>
 8001d32:	2201      	movs	r2, #1
 8001d34:	601a      	str	r2, [r3, #0]
 8001d36:	f7fe fec7 	bl	8000ac8 <HAL_GetTick>
 8001d3a:	4d55      	ldr	r5, [pc, #340]	; (8001e90 <HAL_RCC_OscConfig+0x268>)
 8001d3c:	4606      	mov	r6, r0
 8001d3e:	682b      	ldr	r3, [r5, #0]
 8001d40:	0798      	lsls	r0, r3, #30
 8001d42:	d507      	bpl.n	8001d54 <HAL_RCC_OscConfig+0x12c>
 8001d44:	682b      	ldr	r3, [r5, #0]
 8001d46:	6922      	ldr	r2, [r4, #16]
 8001d48:	f023 03f8 	bic.w	r3, r3, #248	; 0xf8
 8001d4c:	ea43 03c2 	orr.w	r3, r3, r2, lsl #3
 8001d50:	602b      	str	r3, [r5, #0]
 8001d52:	e773      	b.n	8001c3c <HAL_RCC_OscConfig+0x14>
 8001d54:	f7fe feb8 	bl	8000ac8 <HAL_GetTick>
 8001d58:	1b80      	subs	r0, r0, r6
 8001d5a:	2802      	cmp	r0, #2
 8001d5c:	d9ef      	bls.n	8001d3e <HAL_RCC_OscConfig+0x116>
 8001d5e:	e7a7      	b.n	8001cb0 <HAL_RCC_OscConfig+0x88>
 8001d60:	601a      	str	r2, [r3, #0]
 8001d62:	f7fe feb1 	bl	8000ac8 <HAL_GetTick>
 8001d66:	4e4a      	ldr	r6, [pc, #296]	; (8001e90 <HAL_RCC_OscConfig+0x268>)
 8001d68:	4605      	mov	r5, r0
 8001d6a:	6833      	ldr	r3, [r6, #0]
 8001d6c:	0799      	lsls	r1, r3, #30
 8001d6e:	f57f af65 	bpl.w	8001c3c <HAL_RCC_OscConfig+0x14>
 8001d72:	f7fe fea9 	bl	8000ac8 <HAL_GetTick>
 8001d76:	1b40      	subs	r0, r0, r5
 8001d78:	2802      	cmp	r0, #2
 8001d7a:	d9f6      	bls.n	8001d6a <HAL_RCC_OscConfig+0x142>
 8001d7c:	e798      	b.n	8001cb0 <HAL_RCC_OscConfig+0x88>
 8001d7e:	6962      	ldr	r2, [r4, #20]
 8001d80:	4b44      	ldr	r3, [pc, #272]	; (8001e94 <HAL_RCC_OscConfig+0x26c>)
 8001d82:	b182      	cbz	r2, 8001da6 <HAL_RCC_OscConfig+0x17e>
 8001d84:	2201      	movs	r2, #1
 8001d86:	f8c3 2e80 	str.w	r2, [r3, #3712]	; 0xe80
 8001d8a:	f7fe fe9d 	bl	8000ac8 <HAL_GetTick>
 8001d8e:	4e40      	ldr	r6, [pc, #256]	; (8001e90 <HAL_RCC_OscConfig+0x268>)
 8001d90:	4605      	mov	r5, r0
 8001d92:	6f73      	ldr	r3, [r6, #116]	; 0x74
 8001d94:	079f      	lsls	r7, r3, #30
 8001d96:	f53f af55 	bmi.w	8001c44 <HAL_RCC_OscConfig+0x1c>
 8001d9a:	f7fe fe95 	bl	8000ac8 <HAL_GetTick>
 8001d9e:	1b40      	subs	r0, r0, r5
 8001da0:	2802      	cmp	r0, #2
 8001da2:	d9f6      	bls.n	8001d92 <HAL_RCC_OscConfig+0x16a>
 8001da4:	e784      	b.n	8001cb0 <HAL_RCC_OscConfig+0x88>
 8001da6:	f8c3 2e80 	str.w	r2, [r3, #3712]	; 0xe80
 8001daa:	f7fe fe8d 	bl	8000ac8 <HAL_GetTick>
 8001dae:	4e38      	ldr	r6, [pc, #224]	; (8001e90 <HAL_RCC_OscConfig+0x268>)
 8001db0:	4605      	mov	r5, r0
 8001db2:	6f73      	ldr	r3, [r6, #116]	; 0x74
 8001db4:	0798      	lsls	r0, r3, #30
 8001db6:	f57f af45 	bpl.w	8001c44 <HAL_RCC_OscConfig+0x1c>
 8001dba:	f7fe fe85 	bl	8000ac8 <HAL_GetTick>
 8001dbe:	1b40      	subs	r0, r0, r5
 8001dc0:	2802      	cmp	r0, #2
 8001dc2:	d9f6      	bls.n	8001db2 <HAL_RCC_OscConfig+0x18a>
 8001dc4:	e774      	b.n	8001cb0 <HAL_RCC_OscConfig+0x88>
 8001dc6:	4b32      	ldr	r3, [pc, #200]	; (8001e90 <HAL_RCC_OscConfig+0x268>)
 8001dc8:	6c1a      	ldr	r2, [r3, #64]	; 0x40
 8001dca:	f012 5280 	ands.w	r2, r2, #268435456	; 0x10000000
 8001dce:	d128      	bne.n	8001e22 <HAL_RCC_OscConfig+0x1fa>
 8001dd0:	9201      	str	r2, [sp, #4]
 8001dd2:	6c1a      	ldr	r2, [r3, #64]	; 0x40
 8001dd4:	f042 5280 	orr.w	r2, r2, #268435456	; 0x10000000
 8001dd8:	641a      	str	r2, [r3, #64]	; 0x40
 8001dda:	6c1b      	ldr	r3, [r3, #64]	; 0x40
 8001ddc:	f003 5380 	and.w	r3, r3, #268435456	; 0x10000000
 8001de0:	9301      	str	r3, [sp, #4]
 8001de2:	9b01      	ldr	r3, [sp, #4]
 8001de4:	2701      	movs	r7, #1
 8001de6:	4d2c      	ldr	r5, [pc, #176]	; (8001e98 <HAL_RCC_OscConfig+0x270>)
 8001de8:	682b      	ldr	r3, [r5, #0]
 8001dea:	05d9      	lsls	r1, r3, #23
 8001dec:	d51b      	bpl.n	8001e26 <HAL_RCC_OscConfig+0x1fe>
 8001dee:	68a3      	ldr	r3, [r4, #8]
 8001df0:	4d27      	ldr	r5, [pc, #156]	; (8001e90 <HAL_RCC_OscConfig+0x268>)
 8001df2:	2b01      	cmp	r3, #1
 8001df4:	d127      	bne.n	8001e46 <HAL_RCC_OscConfig+0x21e>
 8001df6:	6f2b      	ldr	r3, [r5, #112]	; 0x70
 8001df8:	f043 0301 	orr.w	r3, r3, #1
 8001dfc:	672b      	str	r3, [r5, #112]	; 0x70
 8001dfe:	f7fe fe63 	bl	8000ac8 <HAL_GetTick>
 8001e02:	4e23      	ldr	r6, [pc, #140]	; (8001e90 <HAL_RCC_OscConfig+0x268>)
 8001e04:	4605      	mov	r5, r0
 8001e06:	f241 3888 	movw	r8, #5000	; 0x1388
 8001e0a:	6f33      	ldr	r3, [r6, #112]	; 0x70
 8001e0c:	079b      	lsls	r3, r3, #30
 8001e0e:	d539      	bpl.n	8001e84 <HAL_RCC_OscConfig+0x25c>
 8001e10:	2f00      	cmp	r7, #0
 8001e12:	f43f af1b 	beq.w	8001c4c <HAL_RCC_OscConfig+0x24>
 8001e16:	4a1e      	ldr	r2, [pc, #120]	; (8001e90 <HAL_RCC_OscConfig+0x268>)
 8001e18:	6c13      	ldr	r3, [r2, #64]	; 0x40
 8001e1a:	f023 5380 	bic.w	r3, r3, #268435456	; 0x10000000
 8001e1e:	6413      	str	r3, [r2, #64]	; 0x40
 8001e20:	e714      	b.n	8001c4c <HAL_RCC_OscConfig+0x24>
 8001e22:	2700      	movs	r7, #0
 8001e24:	e7df      	b.n	8001de6 <HAL_RCC_OscConfig+0x1be>
 8001e26:	682b      	ldr	r3, [r5, #0]
 8001e28:	f443 7380 	orr.w	r3, r3, #256	; 0x100
 8001e2c:	602b      	str	r3, [r5, #0]
 8001e2e:	f7fe fe4b 	bl	8000ac8 <HAL_GetTick>
 8001e32:	4606      	mov	r6, r0
 8001e34:	682b      	ldr	r3, [r5, #0]
 8001e36:	05da      	lsls	r2, r3, #23
 8001e38:	d4d9      	bmi.n	8001dee <HAL_RCC_OscConfig+0x1c6>
 8001e3a:	f7fe fe45 	bl	8000ac8 <HAL_GetTick>
 8001e3e:	1b80      	subs	r0, r0, r6
 8001e40:	2802      	cmp	r0, #2
 8001e42:	d9f7      	bls.n	8001e34 <HAL_RCC_OscConfig+0x20c>
 8001e44:	e734      	b.n	8001cb0 <HAL_RCC_OscConfig+0x88>
 8001e46:	2b05      	cmp	r3, #5
 8001e48:	d104      	bne.n	8001e54 <HAL_RCC_OscConfig+0x22c>
 8001e4a:	6f2b      	ldr	r3, [r5, #112]	; 0x70
 8001e4c:	f043 0304 	orr.w	r3, r3, #4
 8001e50:	672b      	str	r3, [r5, #112]	; 0x70
 8001e52:	e7d0      	b.n	8001df6 <HAL_RCC_OscConfig+0x1ce>
 8001e54:	6f2a      	ldr	r2, [r5, #112]	; 0x70
 8001e56:	f022 0201 	bic.w	r2, r2, #1
 8001e5a:	672a      	str	r2, [r5, #112]	; 0x70
 8001e5c:	6f2a      	ldr	r2, [r5, #112]	; 0x70
 8001e5e:	f022 0204 	bic.w	r2, r2, #4
 8001e62:	672a      	str	r2, [r5, #112]	; 0x70
 8001e64:	2b00      	cmp	r3, #0
 8001e66:	d1ca      	bne.n	8001dfe <HAL_RCC_OscConfig+0x1d6>
 8001e68:	f7fe fe2e 	bl	8000ac8 <HAL_GetTick>
 8001e6c:	f241 3888 	movw	r8, #5000	; 0x1388
 8001e70:	4606      	mov	r6, r0
 8001e72:	6f2b      	ldr	r3, [r5, #112]	; 0x70
 8001e74:	0798      	lsls	r0, r3, #30
 8001e76:	d5cb      	bpl.n	8001e10 <HAL_RCC_OscConfig+0x1e8>
 8001e78:	f7fe fe26 	bl	8000ac8 <HAL_GetTick>
 8001e7c:	1b80      	subs	r0, r0, r6
 8001e7e:	4540      	cmp	r0, r8
 8001e80:	d9f7      	bls.n	8001e72 <HAL_RCC_OscConfig+0x24a>
 8001e82:	e715      	b.n	8001cb0 <HAL_RCC_OscConfig+0x88>
 8001e84:	f7fe fe20 	bl	8000ac8 <HAL_GetTick>
 8001e88:	1b40      	subs	r0, r0, r5
 8001e8a:	4540      	cmp	r0, r8
 8001e8c:	d9bd      	bls.n	8001e0a <HAL_RCC_OscConfig+0x1e2>
 8001e8e:	e70f      	b.n	8001cb0 <HAL_RCC_OscConfig+0x88>
 8001e90:	40023800 	.word	0x40023800
 8001e94:	42470000 	.word	0x42470000
 8001e98:	40007000 	.word	0x40007000
 8001e9c:	4d36      	ldr	r5, [pc, #216]	; (8001f78 <HAL_RCC_OscConfig+0x350>)
 8001e9e:	68ab      	ldr	r3, [r5, #8]
 8001ea0:	f003 030c 	and.w	r3, r3, #12
 8001ea4:	2b08      	cmp	r3, #8
 8001ea6:	d03d      	beq.n	8001f24 <HAL_RCC_OscConfig+0x2fc>
 8001ea8:	4b34      	ldr	r3, [pc, #208]	; (8001f7c <HAL_RCC_OscConfig+0x354>)
 8001eaa:	2200      	movs	r2, #0
 8001eac:	2802      	cmp	r0, #2
 8001eae:	661a      	str	r2, [r3, #96]	; 0x60
 8001eb0:	d12b      	bne.n	8001f0a <HAL_RCC_OscConfig+0x2e2>
 8001eb2:	f7fe fe09 	bl	8000ac8 <HAL_GetTick>
 8001eb6:	4606      	mov	r6, r0
 8001eb8:	682b      	ldr	r3, [r5, #0]
 8001eba:	0199      	lsls	r1, r3, #6
 8001ebc:	d41f      	bmi.n	8001efe <HAL_RCC_OscConfig+0x2d6>
 8001ebe:	e9d4 3207 	ldrd	r3, r2, [r4, #28]
 8001ec2:	4313      	orrs	r3, r2
 8001ec4:	6a62      	ldr	r2, [r4, #36]	; 0x24
 8001ec6:	ea43 1382 	orr.w	r3, r3, r2, lsl #6
 8001eca:	6ae2      	ldr	r2, [r4, #44]	; 0x2c
 8001ecc:	ea43 6302 	orr.w	r3, r3, r2, lsl #24
 8001ed0:	6aa2      	ldr	r2, [r4, #40]	; 0x28
 8001ed2:	0852      	lsrs	r2, r2, #1
 8001ed4:	3a01      	subs	r2, #1
 8001ed6:	ea43 4302 	orr.w	r3, r3, r2, lsl #16
 8001eda:	606b      	str	r3, [r5, #4]
 8001edc:	4b27      	ldr	r3, [pc, #156]	; (8001f7c <HAL_RCC_OscConfig+0x354>)
 8001ede:	4d26      	ldr	r5, [pc, #152]	; (8001f78 <HAL_RCC_OscConfig+0x350>)
 8001ee0:	2201      	movs	r2, #1
 8001ee2:	661a      	str	r2, [r3, #96]	; 0x60
 8001ee4:	f7fe fdf0 	bl	8000ac8 <HAL_GetTick>
 8001ee8:	4604      	mov	r4, r0
 8001eea:	682b      	ldr	r3, [r5, #0]
 8001eec:	019a      	lsls	r2, r3, #6
 8001eee:	f53f aeb1 	bmi.w	8001c54 <HAL_RCC_OscConfig+0x2c>
 8001ef2:	f7fe fde9 	bl	8000ac8 <HAL_GetTick>
 8001ef6:	1b00      	subs	r0, r0, r4
 8001ef8:	2802      	cmp	r0, #2
 8001efa:	d9f6      	bls.n	8001eea <HAL_RCC_OscConfig+0x2c2>
 8001efc:	e6d8      	b.n	8001cb0 <HAL_RCC_OscConfig+0x88>
 8001efe:	f7fe fde3 	bl	8000ac8 <HAL_GetTick>
 8001f02:	1b80      	subs	r0, r0, r6
 8001f04:	2802      	cmp	r0, #2
 8001f06:	d9d7      	bls.n	8001eb8 <HAL_RCC_OscConfig+0x290>
 8001f08:	e6d2      	b.n	8001cb0 <HAL_RCC_OscConfig+0x88>
 8001f0a:	f7fe fddd 	bl	8000ac8 <HAL_GetTick>
 8001f0e:	4604      	mov	r4, r0
 8001f10:	682b      	ldr	r3, [r5, #0]
 8001f12:	019b      	lsls	r3, r3, #6
 8001f14:	f57f ae9e 	bpl.w	8001c54 <HAL_RCC_OscConfig+0x2c>
 8001f18:	f7fe fdd6 	bl	8000ac8 <HAL_GetTick>
 8001f1c:	1b00      	subs	r0, r0, r4
 8001f1e:	2802      	cmp	r0, #2
 8001f20:	d9f6      	bls.n	8001f10 <HAL_RCC_OscConfig+0x2e8>
 8001f22:	e6c5      	b.n	8001cb0 <HAL_RCC_OscConfig+0x88>
 8001f24:	2801      	cmp	r0, #1
 8001f26:	f43f aec4 	beq.w	8001cb2 <HAL_RCC_OscConfig+0x8a>
 8001f2a:	686b      	ldr	r3, [r5, #4]
 8001f2c:	69e2      	ldr	r2, [r4, #28]
 8001f2e:	f403 0180 	and.w	r1, r3, #4194304	; 0x400000
 8001f32:	4291      	cmp	r1, r2
 8001f34:	f47f aea5 	bne.w	8001c82 <HAL_RCC_OscConfig+0x5a>
 8001f38:	6a21      	ldr	r1, [r4, #32]
 8001f3a:	f003 023f 	and.w	r2, r3, #63	; 0x3f
 8001f3e:	428a      	cmp	r2, r1
 8001f40:	f47f ae9f 	bne.w	8001c82 <HAL_RCC_OscConfig+0x5a>
 8001f44:	6a61      	ldr	r1, [r4, #36]	; 0x24
 8001f46:	f647 72c0 	movw	r2, #32704	; 0x7fc0
 8001f4a:	401a      	ands	r2, r3
 8001f4c:	ebb2 1f81 	cmp.w	r2, r1, lsl #6
 8001f50:	f47f ae97 	bne.w	8001c82 <HAL_RCC_OscConfig+0x5a>
 8001f54:	6aa2      	ldr	r2, [r4, #40]	; 0x28
 8001f56:	0852      	lsrs	r2, r2, #1
 8001f58:	f403 3140 	and.w	r1, r3, #196608	; 0x30000
 8001f5c:	3a01      	subs	r2, #1
 8001f5e:	ebb1 4f02 	cmp.w	r1, r2, lsl #16
 8001f62:	f47f ae8e 	bne.w	8001c82 <HAL_RCC_OscConfig+0x5a>
 8001f66:	6ae2      	ldr	r2, [r4, #44]	; 0x2c
 8001f68:	f003 6370 	and.w	r3, r3, #251658240	; 0xf000000
 8001f6c:	ebb3 6f02 	cmp.w	r3, r2, lsl #24
 8001f70:	f43f ae70 	beq.w	8001c54 <HAL_RCC_OscConfig+0x2c>
 8001f74:	e685      	b.n	8001c82 <HAL_RCC_OscConfig+0x5a>
 8001f76:	bf00      	nop
 8001f78:	40023800 	.word	0x40023800
 8001f7c:	42470000 	.word	0x42470000

08001f80 <HAL_RCC_GetSysClockFreq>:
 8001f80:	4913      	ldr	r1, [pc, #76]	; (8001fd0 <HAL_RCC_GetSysClockFreq+0x50>)
 8001f82:	b508      	push	{r3, lr}
 8001f84:	688b      	ldr	r3, [r1, #8]
 8001f86:	f003 030c 	and.w	r3, r3, #12
 8001f8a:	2b04      	cmp	r3, #4
 8001f8c:	d01c      	beq.n	8001fc8 <HAL_RCC_GetSysClockFreq+0x48>
 8001f8e:	2b08      	cmp	r3, #8
 8001f90:	d11c      	bne.n	8001fcc <HAL_RCC_GetSysClockFreq+0x4c>
 8001f92:	684a      	ldr	r2, [r1, #4]
 8001f94:	684b      	ldr	r3, [r1, #4]
 8001f96:	6849      	ldr	r1, [r1, #4]
 8001f98:	f413 0380 	ands.w	r3, r3, #4194304	; 0x400000
 8001f9c:	bf14      	ite	ne
 8001f9e:	480d      	ldrne	r0, [pc, #52]	; (8001fd4 <HAL_RCC_GetSysClockFreq+0x54>)
 8001fa0:	480d      	ldreq	r0, [pc, #52]	; (8001fd8 <HAL_RCC_GetSysClockFreq+0x58>)
 8001fa2:	f3c1 1188 	ubfx	r1, r1, #6, #9
 8001fa6:	bf18      	it	ne
 8001fa8:	2300      	movne	r3, #0
 8001faa:	f002 023f 	and.w	r2, r2, #63	; 0x3f
 8001fae:	fba1 0100 	umull	r0, r1, r1, r0
 8001fb2:	f7fe f909 	bl	80001c8 <__aeabi_uldivmod>
 8001fb6:	4b06      	ldr	r3, [pc, #24]	; (8001fd0 <HAL_RCC_GetSysClockFreq+0x50>)
 8001fb8:	685b      	ldr	r3, [r3, #4]
 8001fba:	f3c3 4301 	ubfx	r3, r3, #16, #2
 8001fbe:	3301      	adds	r3, #1
 8001fc0:	005b      	lsls	r3, r3, #1
 8001fc2:	fbb0 f0f3 	udiv	r0, r0, r3
 8001fc6:	bd08      	pop	{r3, pc}
 8001fc8:	4802      	ldr	r0, [pc, #8]	; (8001fd4 <HAL_RCC_GetSysClockFreq+0x54>)
 8001fca:	e7fc      	b.n	8001fc6 <HAL_RCC_GetSysClockFreq+0x46>
 8001fcc:	4802      	ldr	r0, [pc, #8]	; (8001fd8 <HAL_RCC_GetSysClockFreq+0x58>)
 8001fce:	e7fa      	b.n	8001fc6 <HAL_RCC_GetSysClockFreq+0x46>
 8001fd0:	40023800 	.word	0x40023800
 8001fd4:	007a1200 	.word	0x007a1200
 8001fd8:	00f42400 	.word	0x00f42400

08001fdc <HAL_RCC_ClockConfig>:
 8001fdc:	e92d 41f0 	stmdb	sp!, {r4, r5, r6, r7, r8, lr}
 8001fe0:	460d      	mov	r5, r1
 8001fe2:	4604      	mov	r4, r0
 8001fe4:	b910      	cbnz	r0, 8001fec <HAL_RCC_ClockConfig+0x10>
 8001fe6:	2001      	movs	r0, #1
 8001fe8:	e8bd 81f0 	ldmia.w	sp!, {r4, r5, r6, r7, r8, pc}
 8001fec:	4b43      	ldr	r3, [pc, #268]	; (80020fc <HAL_RCC_ClockConfig+0x120>)
 8001fee:	681a      	ldr	r2, [r3, #0]
 8001ff0:	f002 0207 	and.w	r2, r2, #7
 8001ff4:	428a      	cmp	r2, r1
 8001ff6:	d328      	bcc.n	800204a <HAL_RCC_ClockConfig+0x6e>
 8001ff8:	6821      	ldr	r1, [r4, #0]
 8001ffa:	078f      	lsls	r7, r1, #30
 8001ffc:	d42d      	bmi.n	800205a <HAL_RCC_ClockConfig+0x7e>
 8001ffe:	07c8      	lsls	r0, r1, #31
 8002000:	d440      	bmi.n	8002084 <HAL_RCC_ClockConfig+0xa8>
 8002002:	4b3e      	ldr	r3, [pc, #248]	; (80020fc <HAL_RCC_ClockConfig+0x120>)
 8002004:	681a      	ldr	r2, [r3, #0]
 8002006:	f002 0207 	and.w	r2, r2, #7
 800200a:	42aa      	cmp	r2, r5
 800200c:	d865      	bhi.n	80020da <HAL_RCC_ClockConfig+0xfe>
 800200e:	6822      	ldr	r2, [r4, #0]
 8002010:	0751      	lsls	r1, r2, #29
 8002012:	d46b      	bmi.n	80020ec <HAL_RCC_ClockConfig+0x110>
 8002014:	0713      	lsls	r3, r2, #28
 8002016:	d507      	bpl.n	8002028 <HAL_RCC_ClockConfig+0x4c>
 8002018:	4a39      	ldr	r2, [pc, #228]	; (8002100 <HAL_RCC_ClockConfig+0x124>)
 800201a:	6921      	ldr	r1, [r4, #16]
 800201c:	6893      	ldr	r3, [r2, #8]
 800201e:	f423 4360 	bic.w	r3, r3, #57344	; 0xe000
 8002022:	ea43 03c1 	orr.w	r3, r3, r1, lsl #3
 8002026:	6093      	str	r3, [r2, #8]
 8002028:	f7ff ffaa 	bl	8001f80 <HAL_RCC_GetSysClockFreq>
 800202c:	4b34      	ldr	r3, [pc, #208]	; (8002100 <HAL_RCC_ClockConfig+0x124>)
 800202e:	4a35      	ldr	r2, [pc, #212]	; (8002104 <HAL_RCC_ClockConfig+0x128>)
 8002030:	689b      	ldr	r3, [r3, #8]
 8002032:	f3c3 1303 	ubfx	r3, r3, #4, #4
 8002036:	5cd3      	ldrb	r3, [r2, r3]
 8002038:	40d8      	lsrs	r0, r3
 800203a:	4b33      	ldr	r3, [pc, #204]	; (8002108 <HAL_RCC_ClockConfig+0x12c>)
 800203c:	6018      	str	r0, [r3, #0]
 800203e:	4b33      	ldr	r3, [pc, #204]	; (800210c <HAL_RCC_ClockConfig+0x130>)
 8002040:	6818      	ldr	r0, [r3, #0]
 8002042:	f7fe fcf7 	bl	8000a34 <HAL_InitTick>
 8002046:	2000      	movs	r0, #0
 8002048:	e7ce      	b.n	8001fe8 <HAL_RCC_ClockConfig+0xc>
 800204a:	b2ca      	uxtb	r2, r1
 800204c:	701a      	strb	r2, [r3, #0]
 800204e:	681b      	ldr	r3, [r3, #0]
 8002050:	f003 0307 	and.w	r3, r3, #7
 8002054:	428b      	cmp	r3, r1
 8002056:	d1c6      	bne.n	8001fe6 <HAL_RCC_ClockConfig+0xa>
 8002058:	e7ce      	b.n	8001ff8 <HAL_RCC_ClockConfig+0x1c>
 800205a:	4b29      	ldr	r3, [pc, #164]	; (8002100 <HAL_RCC_ClockConfig+0x124>)
 800205c:	f011 0f04 	tst.w	r1, #4
 8002060:	bf1e      	ittt	ne
 8002062:	689a      	ldrne	r2, [r3, #8]
 8002064:	f442 52e0 	orrne.w	r2, r2, #7168	; 0x1c00
 8002068:	609a      	strne	r2, [r3, #8]
 800206a:	070e      	lsls	r6, r1, #28
 800206c:	bf42      	ittt	mi
 800206e:	689a      	ldrmi	r2, [r3, #8]
 8002070:	f442 4260 	orrmi.w	r2, r2, #57344	; 0xe000
 8002074:	609a      	strmi	r2, [r3, #8]
 8002076:	689a      	ldr	r2, [r3, #8]
 8002078:	68a0      	ldr	r0, [r4, #8]
 800207a:	f022 02f0 	bic.w	r2, r2, #240	; 0xf0
 800207e:	4302      	orrs	r2, r0
 8002080:	609a      	str	r2, [r3, #8]
 8002082:	e7bc      	b.n	8001ffe <HAL_RCC_ClockConfig+0x22>
 8002084:	6862      	ldr	r2, [r4, #4]
 8002086:	4b1e      	ldr	r3, [pc, #120]	; (8002100 <HAL_RCC_ClockConfig+0x124>)
 8002088:	2a01      	cmp	r2, #1
 800208a:	d11c      	bne.n	80020c6 <HAL_RCC_ClockConfig+0xea>
 800208c:	681b      	ldr	r3, [r3, #0]
 800208e:	f413 3f00 	tst.w	r3, #131072	; 0x20000
 8002092:	d0a8      	beq.n	8001fe6 <HAL_RCC_ClockConfig+0xa>
 8002094:	4e1a      	ldr	r6, [pc, #104]	; (8002100 <HAL_RCC_ClockConfig+0x124>)
 8002096:	68b3      	ldr	r3, [r6, #8]
 8002098:	f023 0303 	bic.w	r3, r3, #3
 800209c:	4313      	orrs	r3, r2
 800209e:	60b3      	str	r3, [r6, #8]
 80020a0:	f7fe fd12 	bl	8000ac8 <HAL_GetTick>
 80020a4:	f241 3888 	movw	r8, #5000	; 0x1388
 80020a8:	4607      	mov	r7, r0
 80020aa:	68b3      	ldr	r3, [r6, #8]
 80020ac:	6862      	ldr	r2, [r4, #4]
 80020ae:	f003 030c 	and.w	r3, r3, #12
 80020b2:	ebb3 0f82 	cmp.w	r3, r2, lsl #2
 80020b6:	d0a4      	beq.n	8002002 <HAL_RCC_ClockConfig+0x26>
 80020b8:	f7fe fd06 	bl	8000ac8 <HAL_GetTick>
 80020bc:	1bc0      	subs	r0, r0, r7
 80020be:	4540      	cmp	r0, r8
 80020c0:	d9f3      	bls.n	80020aa <HAL_RCC_ClockConfig+0xce>
 80020c2:	2003      	movs	r0, #3
 80020c4:	e790      	b.n	8001fe8 <HAL_RCC_ClockConfig+0xc>
 80020c6:	1e91      	subs	r1, r2, #2
 80020c8:	2901      	cmp	r1, #1
 80020ca:	681b      	ldr	r3, [r3, #0]
 80020cc:	d802      	bhi.n	80020d4 <HAL_RCC_ClockConfig+0xf8>
 80020ce:	f013 7f00 	tst.w	r3, #33554432	; 0x2000000
 80020d2:	e7de      	b.n	8002092 <HAL_RCC_ClockConfig+0xb6>
 80020d4:	f013 0f02 	tst.w	r3, #2
 80020d8:	e7db      	b.n	8002092 <HAL_RCC_ClockConfig+0xb6>
 80020da:	b2ea      	uxtb	r2, r5
 80020dc:	701a      	strb	r2, [r3, #0]
 80020de:	681b      	ldr	r3, [r3, #0]
 80020e0:	f003 0307 	and.w	r3, r3, #7
 80020e4:	42ab      	cmp	r3, r5
 80020e6:	f47f af7e 	bne.w	8001fe6 <HAL_RCC_ClockConfig+0xa>
 80020ea:	e790      	b.n	800200e <HAL_RCC_ClockConfig+0x32>
 80020ec:	4904      	ldr	r1, [pc, #16]	; (8002100 <HAL_RCC_ClockConfig+0x124>)
 80020ee:	68e0      	ldr	r0, [r4, #12]
 80020f0:	688b      	ldr	r3, [r1, #8]
 80020f2:	f423 53e0 	bic.w	r3, r3, #7168	; 0x1c00
 80020f6:	4303      	orrs	r3, r0
 80020f8:	608b      	str	r3, [r1, #8]
 80020fa:	e78b      	b.n	8002014 <HAL_RCC_ClockConfig+0x38>
 80020fc:	40023c00 	.word	0x40023c00
 8002100:	40023800 	.word	0x40023800
 8002104:	08003f04 	.word	0x08003f04
 8002108:	20000000 	.word	0x20000000
 800210c:	20000008 	.word	0x20000008

08002110 <HAL_RCC_GetPCLK1Freq>:
 8002110:	4b04      	ldr	r3, [pc, #16]	; (8002124 <HAL_RCC_GetPCLK1Freq+0x14>)
 8002112:	4a05      	ldr	r2, [pc, #20]	; (8002128 <HAL_RCC_GetPCLK1Freq+0x18>)
 8002114:	689b      	ldr	r3, [r3, #8]
 8002116:	f3c3 2382 	ubfx	r3, r3, #10, #3
 800211a:	5cd3      	ldrb	r3, [r2, r3]
 800211c:	4a03      	ldr	r2, [pc, #12]	; (800212c <HAL_RCC_GetPCLK1Freq+0x1c>)
 800211e:	6810      	ldr	r0, [r2, #0]
 8002120:	40d8      	lsrs	r0, r3
 8002122:	4770      	bx	lr
 8002124:	40023800 	.word	0x40023800
 8002128:	08003f14 	.word	0x08003f14
 800212c:	20000000 	.word	0x20000000

08002130 <HAL_RCCEx_PeriphCLKConfig>:
 8002130:	6803      	ldr	r3, [r0, #0]
 8002132:	f013 0f05 	tst.w	r3, #5
 8002136:	b5f7      	push	{r0, r1, r2, r4, r5, r6, r7, lr}
 8002138:	4604      	mov	r4, r0
 800213a:	d105      	bne.n	8002148 <HAL_RCCEx_PeriphCLKConfig+0x18>
 800213c:	6823      	ldr	r3, [r4, #0]
 800213e:	f013 0302 	ands.w	r3, r3, #2
 8002142:	d12a      	bne.n	800219a <HAL_RCCEx_PeriphCLKConfig+0x6a>
 8002144:	2000      	movs	r0, #0
 8002146:	e026      	b.n	8002196 <HAL_RCCEx_PeriphCLKConfig+0x66>
 8002148:	4b42      	ldr	r3, [pc, #264]	; (8002254 <HAL_RCCEx_PeriphCLKConfig+0x124>)
 800214a:	4e43      	ldr	r6, [pc, #268]	; (8002258 <HAL_RCCEx_PeriphCLKConfig+0x128>)
 800214c:	2200      	movs	r2, #0
 800214e:	669a      	str	r2, [r3, #104]	; 0x68
 8002150:	f7fe fcba 	bl	8000ac8 <HAL_GetTick>
 8002154:	4605      	mov	r5, r0
 8002156:	6833      	ldr	r3, [r6, #0]
 8002158:	011f      	lsls	r7, r3, #4
 800215a:	d416      	bmi.n	800218a <HAL_RCCEx_PeriphCLKConfig+0x5a>
 800215c:	e9d4 2301 	ldrd	r2, r3, [r4, #4]
 8002160:	071b      	lsls	r3, r3, #28
 8002162:	ea43 1382 	orr.w	r3, r3, r2, lsl #6
 8002166:	f8c6 3084 	str.w	r3, [r6, #132]	; 0x84
 800216a:	4b3a      	ldr	r3, [pc, #232]	; (8002254 <HAL_RCCEx_PeriphCLKConfig+0x124>)
 800216c:	4e3a      	ldr	r6, [pc, #232]	; (8002258 <HAL_RCCEx_PeriphCLKConfig+0x128>)
 800216e:	2201      	movs	r2, #1
 8002170:	669a      	str	r2, [r3, #104]	; 0x68
 8002172:	f7fe fca9 	bl	8000ac8 <HAL_GetTick>
 8002176:	4605      	mov	r5, r0
 8002178:	6833      	ldr	r3, [r6, #0]
 800217a:	0118      	lsls	r0, r3, #4
 800217c:	d4de      	bmi.n	800213c <HAL_RCCEx_PeriphCLKConfig+0xc>
 800217e:	f7fe fca3 	bl	8000ac8 <HAL_GetTick>
 8002182:	1b40      	subs	r0, r0, r5
 8002184:	2802      	cmp	r0, #2
 8002186:	d9f7      	bls.n	8002178 <HAL_RCCEx_PeriphCLKConfig+0x48>
 8002188:	e004      	b.n	8002194 <HAL_RCCEx_PeriphCLKConfig+0x64>
 800218a:	f7fe fc9d 	bl	8000ac8 <HAL_GetTick>
 800218e:	1b40      	subs	r0, r0, r5
 8002190:	2802      	cmp	r0, #2
 8002192:	d9e0      	bls.n	8002156 <HAL_RCCEx_PeriphCLKConfig+0x26>
 8002194:	2003      	movs	r0, #3
 8002196:	b003      	add	sp, #12
 8002198:	bdf0      	pop	{r4, r5, r6, r7, pc}
 800219a:	2300      	movs	r3, #0
 800219c:	9301      	str	r3, [sp, #4]
 800219e:	4b2e      	ldr	r3, [pc, #184]	; (8002258 <HAL_RCCEx_PeriphCLKConfig+0x128>)
 80021a0:	4d2e      	ldr	r5, [pc, #184]	; (800225c <HAL_RCCEx_PeriphCLKConfig+0x12c>)
 80021a2:	6c1a      	ldr	r2, [r3, #64]	; 0x40
 80021a4:	f042 5280 	orr.w	r2, r2, #268435456	; 0x10000000
 80021a8:	641a      	str	r2, [r3, #64]	; 0x40
 80021aa:	6c1b      	ldr	r3, [r3, #64]	; 0x40
 80021ac:	f003 5380 	and.w	r3, r3, #268435456	; 0x10000000
 80021b0:	9301      	str	r3, [sp, #4]
 80021b2:	9b01      	ldr	r3, [sp, #4]
 80021b4:	682b      	ldr	r3, [r5, #0]
 80021b6:	f443 7380 	orr.w	r3, r3, #256	; 0x100
 80021ba:	602b      	str	r3, [r5, #0]
 80021bc:	f7fe fc84 	bl	8000ac8 <HAL_GetTick>
 80021c0:	4606      	mov	r6, r0
 80021c2:	682b      	ldr	r3, [r5, #0]
 80021c4:	05d9      	lsls	r1, r3, #23
 80021c6:	d51b      	bpl.n	8002200 <HAL_RCCEx_PeriphCLKConfig+0xd0>
 80021c8:	4d23      	ldr	r5, [pc, #140]	; (8002258 <HAL_RCCEx_PeriphCLKConfig+0x128>)
 80021ca:	68e2      	ldr	r2, [r4, #12]
 80021cc:	6f2b      	ldr	r3, [r5, #112]	; 0x70
 80021ce:	f413 7340 	ands.w	r3, r3, #768	; 0x300
 80021d2:	d11b      	bne.n	800220c <HAL_RCCEx_PeriphCLKConfig+0xdc>
 80021d4:	68e3      	ldr	r3, [r4, #12]
 80021d6:	f403 7240 	and.w	r2, r3, #768	; 0x300
 80021da:	f5b2 7f40 	cmp.w	r2, #768	; 0x300
 80021de:	4a1e      	ldr	r2, [pc, #120]	; (8002258 <HAL_RCCEx_PeriphCLKConfig+0x128>)
 80021e0:	d134      	bne.n	800224c <HAL_RCCEx_PeriphCLKConfig+0x11c>
 80021e2:	6891      	ldr	r1, [r2, #8]
 80021e4:	f023 4070 	bic.w	r0, r3, #4026531840	; 0xf0000000
 80021e8:	f421 11f8 	bic.w	r1, r1, #2031616	; 0x1f0000
 80021ec:	f420 7040 	bic.w	r0, r0, #768	; 0x300
 80021f0:	4301      	orrs	r1, r0
 80021f2:	6091      	str	r1, [r2, #8]
 80021f4:	6f11      	ldr	r1, [r2, #112]	; 0x70
 80021f6:	f3c3 030b 	ubfx	r3, r3, #0, #12
 80021fa:	430b      	orrs	r3, r1
 80021fc:	6713      	str	r3, [r2, #112]	; 0x70
 80021fe:	e7a1      	b.n	8002144 <HAL_RCCEx_PeriphCLKConfig+0x14>
 8002200:	f7fe fc62 	bl	8000ac8 <HAL_GetTick>
 8002204:	1b80      	subs	r0, r0, r6
 8002206:	2802      	cmp	r0, #2
 8002208:	d9db      	bls.n	80021c2 <HAL_RCCEx_PeriphCLKConfig+0x92>
 800220a:	e7c3      	b.n	8002194 <HAL_RCCEx_PeriphCLKConfig+0x64>
 800220c:	f402 7240 	and.w	r2, r2, #768	; 0x300
 8002210:	4293      	cmp	r3, r2
 8002212:	d0df      	beq.n	80021d4 <HAL_RCCEx_PeriphCLKConfig+0xa4>
 8002214:	6f2b      	ldr	r3, [r5, #112]	; 0x70
 8002216:	4a0f      	ldr	r2, [pc, #60]	; (8002254 <HAL_RCCEx_PeriphCLKConfig+0x124>)
 8002218:	2101      	movs	r1, #1
 800221a:	f8c2 1e40 	str.w	r1, [r2, #3648]	; 0xe40
 800221e:	f423 7340 	bic.w	r3, r3, #768	; 0x300
 8002222:	2100      	movs	r1, #0
 8002224:	f8c2 1e40 	str.w	r1, [r2, #3648]	; 0xe40
 8002228:	672b      	str	r3, [r5, #112]	; 0x70
 800222a:	6f2b      	ldr	r3, [r5, #112]	; 0x70
 800222c:	07da      	lsls	r2, r3, #31
 800222e:	d5d1      	bpl.n	80021d4 <HAL_RCCEx_PeriphCLKConfig+0xa4>
 8002230:	f7fe fc4a 	bl	8000ac8 <HAL_GetTick>
 8002234:	f241 3788 	movw	r7, #5000	; 0x1388
 8002238:	4606      	mov	r6, r0
 800223a:	6f2b      	ldr	r3, [r5, #112]	; 0x70
 800223c:	079b      	lsls	r3, r3, #30
 800223e:	d4c9      	bmi.n	80021d4 <HAL_RCCEx_PeriphCLKConfig+0xa4>
 8002240:	f7fe fc42 	bl	8000ac8 <HAL_GetTick>
 8002244:	1b80      	subs	r0, r0, r6
 8002246:	42b8      	cmp	r0, r7
 8002248:	d9f7      	bls.n	800223a <HAL_RCCEx_PeriphCLKConfig+0x10a>
 800224a:	e7a3      	b.n	8002194 <HAL_RCCEx_PeriphCLKConfig+0x64>
 800224c:	6891      	ldr	r1, [r2, #8]
 800224e:	f421 11f8 	bic.w	r1, r1, #2031616	; 0x1f0000
 8002252:	e7ce      	b.n	80021f2 <HAL_RCCEx_PeriphCLKConfig+0xc2>
 8002254:	42470000 	.word	0x42470000
 8002258:	40023800 	.word	0x40023800
 800225c:	40007000 	.word	0x40007000

08002260 <HAL_RCCEx_GetPeriphCLKFreq>:
 8002260:	2801      	cmp	r0, #1
 8002262:	d11b      	bne.n	800229c <HAL_RCCEx_GetPeriphCLKFreq+0x3c>
 8002264:	4b0e      	ldr	r3, [pc, #56]	; (80022a0 <HAL_RCCEx_GetPeriphCLKFreq+0x40>)
 8002266:	689a      	ldr	r2, [r3, #8]
 8002268:	0212      	lsls	r2, r2, #8
 800226a:	d417      	bmi.n	800229c <HAL_RCCEx_GetPeriphCLKFreq+0x3c>
 800226c:	685a      	ldr	r2, [r3, #4]
 800226e:	f412 0f80 	tst.w	r2, #4194304	; 0x400000
 8002272:	685a      	ldr	r2, [r3, #4]
 8002274:	bf14      	ite	ne
 8002276:	4b0b      	ldrne	r3, [pc, #44]	; (80022a4 <HAL_RCCEx_GetPeriphCLKFreq+0x44>)
 8002278:	4b0b      	ldreq	r3, [pc, #44]	; (80022a8 <HAL_RCCEx_GetPeriphCLKFreq+0x48>)
 800227a:	f002 023f 	and.w	r2, r2, #63	; 0x3f
 800227e:	fbb3 f3f2 	udiv	r3, r3, r2
 8002282:	4a07      	ldr	r2, [pc, #28]	; (80022a0 <HAL_RCCEx_GetPeriphCLKFreq+0x40>)
 8002284:	f8d2 0084 	ldr.w	r0, [r2, #132]	; 0x84
 8002288:	f8d2 2084 	ldr.w	r2, [r2, #132]	; 0x84
 800228c:	f3c0 1088 	ubfx	r0, r0, #6, #9
 8002290:	4358      	muls	r0, r3
 8002292:	f3c2 7302 	ubfx	r3, r2, #28, #3
 8002296:	fbb0 f0f3 	udiv	r0, r0, r3
 800229a:	4770      	bx	lr
 800229c:	2000      	movs	r0, #0
 800229e:	4770      	bx	lr
 80022a0:	40023800 	.word	0x40023800
 80022a4:	007a1200 	.word	0x007a1200
 80022a8:	00f42400 	.word	0x00f42400

080022ac <HAL_SPI_Init>:
 80022ac:	b510      	push	{r4, lr}
 80022ae:	4604      	mov	r4, r0
 80022b0:	2800      	cmp	r0, #0
 80022b2:	d055      	beq.n	8002360 <HAL_SPI_Init+0xb4>
 80022b4:	6a43      	ldr	r3, [r0, #36]	; 0x24
 80022b6:	2b00      	cmp	r3, #0
 80022b8:	d14e      	bne.n	8002358 <HAL_SPI_Init+0xac>
 80022ba:	6842      	ldr	r2, [r0, #4]
 80022bc:	f5b2 7f82 	cmp.w	r2, #260	; 0x104
 80022c0:	d000      	beq.n	80022c4 <HAL_SPI_Init+0x18>
 80022c2:	61c3      	str	r3, [r0, #28]
 80022c4:	2300      	movs	r3, #0
 80022c6:	62a3      	str	r3, [r4, #40]	; 0x28
 80022c8:	f894 3051 	ldrb.w	r3, [r4, #81]	; 0x51
 80022cc:	f003 02ff 	and.w	r2, r3, #255	; 0xff
 80022d0:	b923      	cbnz	r3, 80022dc <HAL_SPI_Init+0x30>
 80022d2:	f884 2050 	strb.w	r2, [r4, #80]	; 0x50
 80022d6:	4620      	mov	r0, r4
 80022d8:	f7fe fb14 	bl	8000904 <HAL_SPI_MspInit>
 80022dc:	6821      	ldr	r1, [r4, #0]
 80022de:	68a0      	ldr	r0, [r4, #8]
 80022e0:	69a2      	ldr	r2, [r4, #24]
 80022e2:	2302      	movs	r3, #2
 80022e4:	f884 3051 	strb.w	r3, [r4, #81]	; 0x51
 80022e8:	680b      	ldr	r3, [r1, #0]
 80022ea:	f023 0340 	bic.w	r3, r3, #64	; 0x40
 80022ee:	600b      	str	r3, [r1, #0]
 80022f0:	6863      	ldr	r3, [r4, #4]
 80022f2:	f400 4004 	and.w	r0, r0, #33792	; 0x8400
 80022f6:	f403 7382 	and.w	r3, r3, #260	; 0x104
 80022fa:	4303      	orrs	r3, r0
 80022fc:	68e0      	ldr	r0, [r4, #12]
 80022fe:	f400 6000 	and.w	r0, r0, #2048	; 0x800
 8002302:	4303      	orrs	r3, r0
 8002304:	6920      	ldr	r0, [r4, #16]
 8002306:	f000 0002 	and.w	r0, r0, #2
 800230a:	4303      	orrs	r3, r0
 800230c:	6960      	ldr	r0, [r4, #20]
 800230e:	f000 0001 	and.w	r0, r0, #1
 8002312:	4303      	orrs	r3, r0
 8002314:	f402 7000 	and.w	r0, r2, #512	; 0x200
 8002318:	4303      	orrs	r3, r0
 800231a:	69e0      	ldr	r0, [r4, #28]
 800231c:	f000 0038 	and.w	r0, r0, #56	; 0x38
 8002320:	4303      	orrs	r3, r0
 8002322:	6a20      	ldr	r0, [r4, #32]
 8002324:	f000 0080 	and.w	r0, r0, #128	; 0x80
 8002328:	4303      	orrs	r3, r0
 800232a:	6aa0      	ldr	r0, [r4, #40]	; 0x28
 800232c:	f400 5000 	and.w	r0, r0, #8192	; 0x2000
 8002330:	4303      	orrs	r3, r0
 8002332:	600b      	str	r3, [r1, #0]
 8002334:	6a63      	ldr	r3, [r4, #36]	; 0x24
 8002336:	0c12      	lsrs	r2, r2, #16
 8002338:	f003 0310 	and.w	r3, r3, #16
 800233c:	f002 0204 	and.w	r2, r2, #4
 8002340:	431a      	orrs	r2, r3
 8002342:	604a      	str	r2, [r1, #4]
 8002344:	69cb      	ldr	r3, [r1, #28]
 8002346:	f423 6300 	bic.w	r3, r3, #2048	; 0x800
 800234a:	61cb      	str	r3, [r1, #28]
 800234c:	2000      	movs	r0, #0
 800234e:	2301      	movs	r3, #1
 8002350:	6560      	str	r0, [r4, #84]	; 0x54
 8002352:	f884 3051 	strb.w	r3, [r4, #81]	; 0x51
 8002356:	bd10      	pop	{r4, pc}
 8002358:	2300      	movs	r3, #0
 800235a:	e9c0 3304 	strd	r3, r3, [r0, #16]
 800235e:	e7b1      	b.n	80022c4 <HAL_SPI_Init+0x18>
 8002360:	2001      	movs	r0, #1
 8002362:	e7f8      	b.n	8002356 <HAL_SPI_Init+0xaa>

08002364 <USB_CoreReset>:
 8002364:	b082      	sub	sp, #8
 8002366:	2300      	movs	r3, #0
 8002368:	4a10      	ldr	r2, [pc, #64]	; (80023ac <USB_CoreReset+0x48>)
 800236a:	9301      	str	r3, [sp, #4]
 800236c:	9b01      	ldr	r3, [sp, #4]
 800236e:	3301      	adds	r3, #1
 8002370:	9301      	str	r3, [sp, #4]
 8002372:	9b01      	ldr	r3, [sp, #4]
 8002374:	4293      	cmp	r3, r2
 8002376:	d816      	bhi.n	80023a6 <USB_CoreReset+0x42>
 8002378:	6903      	ldr	r3, [r0, #16]
 800237a:	2b00      	cmp	r3, #0
 800237c:	daf6      	bge.n	800236c <USB_CoreReset+0x8>
 800237e:	2300      	movs	r3, #0
 8002380:	9301      	str	r3, [sp, #4]
 8002382:	6903      	ldr	r3, [r0, #16]
 8002384:	4a09      	ldr	r2, [pc, #36]	; (80023ac <USB_CoreReset+0x48>)
 8002386:	f043 0301 	orr.w	r3, r3, #1
 800238a:	6103      	str	r3, [r0, #16]
 800238c:	9b01      	ldr	r3, [sp, #4]
 800238e:	3301      	adds	r3, #1
 8002390:	9301      	str	r3, [sp, #4]
 8002392:	9b01      	ldr	r3, [sp, #4]
 8002394:	4293      	cmp	r3, r2
 8002396:	d806      	bhi.n	80023a6 <USB_CoreReset+0x42>
 8002398:	6903      	ldr	r3, [r0, #16]
 800239a:	f013 0301 	ands.w	r3, r3, #1
 800239e:	d1f5      	bne.n	800238c <USB_CoreReset+0x28>
 80023a0:	4618      	mov	r0, r3
 80023a2:	b002      	add	sp, #8
 80023a4:	4770      	bx	lr
 80023a6:	2003      	movs	r0, #3
 80023a8:	e7fb      	b.n	80023a2 <USB_CoreReset+0x3e>
 80023aa:	bf00      	nop
 80023ac:	00030d40 	.word	0x00030d40

080023b0 <USB_CoreInit>:
 80023b0:	b084      	sub	sp, #16
 80023b2:	b538      	push	{r3, r4, r5, lr}
 80023b4:	ad05      	add	r5, sp, #20
 80023b6:	e885 000e 	stmia.w	r5, {r1, r2, r3}
 80023ba:	9b0a      	ldr	r3, [sp, #40]	; 0x28
 80023bc:	2b01      	cmp	r3, #1
 80023be:	4604      	mov	r4, r0
 80023c0:	d125      	bne.n	800240e <USB_CoreInit+0x5e>
 80023c2:	6b83      	ldr	r3, [r0, #56]	; 0x38
 80023c4:	f423 3380 	bic.w	r3, r3, #65536	; 0x10000
 80023c8:	6383      	str	r3, [r0, #56]	; 0x38
 80023ca:	68c3      	ldr	r3, [r0, #12]
 80023cc:	f423 0384 	bic.w	r3, r3, #4325376	; 0x420000
 80023d0:	f023 0340 	bic.w	r3, r3, #64	; 0x40
 80023d4:	60c3      	str	r3, [r0, #12]
 80023d6:	68c3      	ldr	r3, [r0, #12]
 80023d8:	f423 1340 	bic.w	r3, r3, #3145728	; 0x300000
 80023dc:	60c3      	str	r3, [r0, #12]
 80023de:	9b11      	ldr	r3, [sp, #68]	; 0x44
 80023e0:	2b01      	cmp	r3, #1
 80023e2:	bf02      	ittt	eq
 80023e4:	68c3      	ldreq	r3, [r0, #12]
 80023e6:	f443 1380 	orreq.w	r3, r3, #1048576	; 0x100000
 80023ea:	60c3      	streq	r3, [r0, #12]
 80023ec:	f7ff ffba 	bl	8002364 <USB_CoreReset>
 80023f0:	9b08      	ldr	r3, [sp, #32]
 80023f2:	2b01      	cmp	r3, #1
 80023f4:	d107      	bne.n	8002406 <USB_CoreInit+0x56>
 80023f6:	68a3      	ldr	r3, [r4, #8]
 80023f8:	f043 0306 	orr.w	r3, r3, #6
 80023fc:	60a3      	str	r3, [r4, #8]
 80023fe:	68a3      	ldr	r3, [r4, #8]
 8002400:	f043 0320 	orr.w	r3, r3, #32
 8002404:	60a3      	str	r3, [r4, #8]
 8002406:	e8bd 4038 	ldmia.w	sp!, {r3, r4, r5, lr}
 800240a:	b004      	add	sp, #16
 800240c:	4770      	bx	lr
 800240e:	68c3      	ldr	r3, [r0, #12]
 8002410:	f043 0340 	orr.w	r3, r3, #64	; 0x40
 8002414:	60c3      	str	r3, [r0, #12]
 8002416:	f7ff ffa5 	bl	8002364 <USB_CoreReset>
 800241a:	9b0e      	ldr	r3, [sp, #56]	; 0x38
 800241c:	b923      	cbnz	r3, 8002428 <USB_CoreInit+0x78>
 800241e:	6ba3      	ldr	r3, [r4, #56]	; 0x38
 8002420:	f443 3380 	orr.w	r3, r3, #65536	; 0x10000
 8002424:	63a3      	str	r3, [r4, #56]	; 0x38
 8002426:	e7e3      	b.n	80023f0 <USB_CoreInit+0x40>
 8002428:	6ba3      	ldr	r3, [r4, #56]	; 0x38
 800242a:	f423 3380 	bic.w	r3, r3, #65536	; 0x10000
 800242e:	e7f9      	b.n	8002424 <USB_CoreInit+0x74>

08002430 <USB_EnableGlobalInt>:
 8002430:	6883      	ldr	r3, [r0, #8]
 8002432:	f043 0301 	orr.w	r3, r3, #1
 8002436:	6083      	str	r3, [r0, #8]
 8002438:	2000      	movs	r0, #0
 800243a:	4770      	bx	lr

0800243c <USB_DisableGlobalInt>:
 800243c:	6883      	ldr	r3, [r0, #8]
 800243e:	f023 0301 	bic.w	r3, r3, #1
 8002442:	6083      	str	r3, [r0, #8]
 8002444:	2000      	movs	r0, #0
 8002446:	4770      	bx	lr

08002448 <USB_SetCurrentMode>:
 8002448:	b538      	push	{r3, r4, r5, lr}
 800244a:	68c3      	ldr	r3, [r0, #12]
 800244c:	2901      	cmp	r1, #1
 800244e:	f023 43c0 	bic.w	r3, r3, #1610612736	; 0x60000000
 8002452:	4605      	mov	r5, r0
 8002454:	60c3      	str	r3, [r0, #12]
 8002456:	d110      	bne.n	800247a <USB_SetCurrentMode+0x32>
 8002458:	68c3      	ldr	r3, [r0, #12]
 800245a:	f043 5300 	orr.w	r3, r3, #536870912	; 0x20000000
 800245e:	60c3      	str	r3, [r0, #12]
 8002460:	2400      	movs	r4, #0
 8002462:	2001      	movs	r0, #1
 8002464:	f7fe fb36 	bl	8000ad4 <HAL_Delay>
 8002468:	696b      	ldr	r3, [r5, #20]
 800246a:	07d9      	lsls	r1, r3, #31
 800246c:	f104 0401 	add.w	r4, r4, #1
 8002470:	d415      	bmi.n	800249e <USB_SetCurrentMode+0x56>
 8002472:	2c32      	cmp	r4, #50	; 0x32
 8002474:	d1f5      	bne.n	8002462 <USB_SetCurrentMode+0x1a>
 8002476:	2001      	movs	r0, #1
 8002478:	bd38      	pop	{r3, r4, r5, pc}
 800247a:	2900      	cmp	r1, #0
 800247c:	d1fb      	bne.n	8002476 <USB_SetCurrentMode+0x2e>
 800247e:	68c3      	ldr	r3, [r0, #12]
 8002480:	f043 4380 	orr.w	r3, r3, #1073741824	; 0x40000000
 8002484:	60c3      	str	r3, [r0, #12]
 8002486:	460c      	mov	r4, r1
 8002488:	2001      	movs	r0, #1
 800248a:	f7fe fb23 	bl	8000ad4 <HAL_Delay>
 800248e:	696b      	ldr	r3, [r5, #20]
 8002490:	07da      	lsls	r2, r3, #31
 8002492:	f104 0401 	add.w	r4, r4, #1
 8002496:	d502      	bpl.n	800249e <USB_SetCurrentMode+0x56>
 8002498:	2c32      	cmp	r4, #50	; 0x32
 800249a:	d1f5      	bne.n	8002488 <USB_SetCurrentMode+0x40>
 800249c:	e7eb      	b.n	8002476 <USB_SetCurrentMode+0x2e>
 800249e:	f1a4 0332 	sub.w	r3, r4, #50	; 0x32
 80024a2:	4258      	negs	r0, r3
 80024a4:	4158      	adcs	r0, r3
 80024a6:	e7e7      	b.n	8002478 <USB_SetCurrentMode+0x30>

080024a8 <USB_FlushTxFifo>:
 80024a8:	b082      	sub	sp, #8
 80024aa:	2300      	movs	r3, #0
 80024ac:	4a10      	ldr	r2, [pc, #64]	; (80024f0 <USB_FlushTxFifo+0x48>)
 80024ae:	9301      	str	r3, [sp, #4]
 80024b0:	9b01      	ldr	r3, [sp, #4]
 80024b2:	3301      	adds	r3, #1
 80024b4:	9301      	str	r3, [sp, #4]
 80024b6:	9b01      	ldr	r3, [sp, #4]
 80024b8:	4293      	cmp	r3, r2
 80024ba:	d816      	bhi.n	80024ea <USB_FlushTxFifo+0x42>
 80024bc:	6903      	ldr	r3, [r0, #16]
 80024be:	2b00      	cmp	r3, #0
 80024c0:	daf6      	bge.n	80024b0 <USB_FlushTxFifo+0x8>
 80024c2:	0189      	lsls	r1, r1, #6
 80024c4:	2300      	movs	r3, #0
 80024c6:	f041 0120 	orr.w	r1, r1, #32
 80024ca:	4a09      	ldr	r2, [pc, #36]	; (80024f0 <USB_FlushTxFifo+0x48>)
 80024cc:	9301      	str	r3, [sp, #4]
 80024ce:	6101      	str	r1, [r0, #16]
 80024d0:	9b01      	ldr	r3, [sp, #4]
 80024d2:	3301      	adds	r3, #1
 80024d4:	9301      	str	r3, [sp, #4]
 80024d6:	9b01      	ldr	r3, [sp, #4]
 80024d8:	4293      	cmp	r3, r2
 80024da:	d806      	bhi.n	80024ea <USB_FlushTxFifo+0x42>
 80024dc:	6903      	ldr	r3, [r0, #16]
 80024de:	f013 0320 	ands.w	r3, r3, #32
 80024e2:	d1f5      	bne.n	80024d0 <USB_FlushTxFifo+0x28>
 80024e4:	4618      	mov	r0, r3
 80024e6:	b002      	add	sp, #8
 80024e8:	4770      	bx	lr
 80024ea:	2003      	movs	r0, #3
 80024ec:	e7fb      	b.n	80024e6 <USB_FlushTxFifo+0x3e>
 80024ee:	bf00      	nop
 80024f0:	00030d40 	.word	0x00030d40

080024f4 <USB_FlushRxFifo>:
 80024f4:	b082      	sub	sp, #8
 80024f6:	2300      	movs	r3, #0
 80024f8:	4a0f      	ldr	r2, [pc, #60]	; (8002538 <USB_FlushRxFifo+0x44>)
 80024fa:	9301      	str	r3, [sp, #4]
 80024fc:	9b01      	ldr	r3, [sp, #4]
 80024fe:	3301      	adds	r3, #1
 8002500:	9301      	str	r3, [sp, #4]
 8002502:	9b01      	ldr	r3, [sp, #4]
 8002504:	4293      	cmp	r3, r2
 8002506:	d814      	bhi.n	8002532 <USB_FlushRxFifo+0x3e>
 8002508:	6903      	ldr	r3, [r0, #16]
 800250a:	2b00      	cmp	r3, #0
 800250c:	daf6      	bge.n	80024fc <USB_FlushRxFifo+0x8>
 800250e:	2300      	movs	r3, #0
 8002510:	9301      	str	r3, [sp, #4]
 8002512:	4a09      	ldr	r2, [pc, #36]	; (8002538 <USB_FlushRxFifo+0x44>)
 8002514:	2310      	movs	r3, #16
 8002516:	6103      	str	r3, [r0, #16]
 8002518:	9b01      	ldr	r3, [sp, #4]
 800251a:	3301      	adds	r3, #1
 800251c:	9301      	str	r3, [sp, #4]
 800251e:	9b01      	ldr	r3, [sp, #4]
 8002520:	4293      	cmp	r3, r2
 8002522:	d806      	bhi.n	8002532 <USB_FlushRxFifo+0x3e>
 8002524:	6903      	ldr	r3, [r0, #16]
 8002526:	f013 0310 	ands.w	r3, r3, #16
 800252a:	d1f5      	bne.n	8002518 <USB_FlushRxFifo+0x24>
 800252c:	4618      	mov	r0, r3
 800252e:	b002      	add	sp, #8
 8002530:	4770      	bx	lr
 8002532:	2003      	movs	r0, #3
 8002534:	e7fb      	b.n	800252e <USB_FlushRxFifo+0x3a>
 8002536:	bf00      	nop
 8002538:	00030d40 	.word	0x00030d40

0800253c <USB_WritePacket>:
 800253c:	b510      	push	{r4, lr}
 800253e:	f89d 4008 	ldrb.w	r4, [sp, #8]
 8002542:	b944      	cbnz	r4, 8002556 <USB_WritePacket+0x1a>
 8002544:	3303      	adds	r3, #3
 8002546:	3201      	adds	r2, #1
 8002548:	089b      	lsrs	r3, r3, #2
 800254a:	eb00 3002 	add.w	r0, r0, r2, lsl #12
 800254e:	eb01 0383 	add.w	r3, r1, r3, lsl #2
 8002552:	428b      	cmp	r3, r1
 8002554:	d101      	bne.n	800255a <USB_WritePacket+0x1e>
 8002556:	2000      	movs	r0, #0
 8002558:	bd10      	pop	{r4, pc}
 800255a:	f851 2b04 	ldr.w	r2, [r1], #4
 800255e:	6002      	str	r2, [r0, #0]
 8002560:	e7f7      	b.n	8002552 <USB_WritePacket+0x16>

08002562 <USB_ReadPacket>:
 8002562:	b570      	push	{r4, r5, r6, lr}
 8002564:	2300      	movs	r3, #0
 8002566:	0894      	lsrs	r4, r2, #2
 8002568:	f500 5580 	add.w	r5, r0, #4096	; 0x1000
 800256c:	f002 0203 	and.w	r2, r2, #3
 8002570:	42a3      	cmp	r3, r4
 8002572:	d311      	bcc.n	8002598 <USB_ReadPacket+0x36>
 8002574:	eb01 0184 	add.w	r1, r1, r4, lsl #2
 8002578:	b162      	cbz	r2, 8002594 <USB_ReadPacket+0x32>
 800257a:	f500 5080 	add.w	r0, r0, #4096	; 0x1000
 800257e:	2300      	movs	r3, #0
 8002580:	6804      	ldr	r4, [r0, #0]
 8002582:	00d8      	lsls	r0, r3, #3
 8002584:	fa24 f000 	lsr.w	r0, r4, r0
 8002588:	54c8      	strb	r0, [r1, r3]
 800258a:	3301      	adds	r3, #1
 800258c:	b298      	uxth	r0, r3
 800258e:	4282      	cmp	r2, r0
 8002590:	d1f7      	bne.n	8002582 <USB_ReadPacket+0x20>
 8002592:	4411      	add	r1, r2
 8002594:	4608      	mov	r0, r1
 8002596:	bd70      	pop	{r4, r5, r6, pc}
 8002598:	682e      	ldr	r6, [r5, #0]
 800259a:	f841 6023 	str.w	r6, [r1, r3, lsl #2]
 800259e:	3301      	adds	r3, #1
 80025a0:	e7e6      	b.n	8002570 <USB_ReadPacket+0xe>

080025a2 <USB_ReadInterrupts>:
 80025a2:	6942      	ldr	r2, [r0, #20]
 80025a4:	6980      	ldr	r0, [r0, #24]
 80025a6:	4010      	ands	r0, r2
 80025a8:	4770      	bx	lr

080025aa <USB_GetMode>:
 80025aa:	6940      	ldr	r0, [r0, #20]
 80025ac:	f000 0001 	and.w	r0, r0, #1
 80025b0:	4770      	bx	lr
	...

080025b4 <USB_HostInit>:
 80025b4:	b084      	sub	sp, #16
 80025b6:	b570      	push	{r4, r5, r6, lr}
 80025b8:	4604      	mov	r4, r0
 80025ba:	a805      	add	r0, sp, #20
 80025bc:	e880 000e 	stmia.w	r0, {r1, r2, r3}
 80025c0:	2300      	movs	r3, #0
 80025c2:	f8c4 3e00 	str.w	r3, [r4, #3584]	; 0xe00
 80025c6:	6ba3      	ldr	r3, [r4, #56]	; 0x38
 80025c8:	f443 1300 	orr.w	r3, r3, #2097152	; 0x200000
 80025cc:	63a3      	str	r3, [r4, #56]	; 0x38
 80025ce:	6ba3      	ldr	r3, [r4, #56]	; 0x38
 80025d0:	f423 2300 	bic.w	r3, r3, #524288	; 0x80000
 80025d4:	63a3      	str	r3, [r4, #56]	; 0x38
 80025d6:	6ba3      	ldr	r3, [r4, #56]	; 0x38
 80025d8:	f423 2380 	bic.w	r3, r3, #262144	; 0x40000
 80025dc:	63a3      	str	r3, [r4, #56]	; 0x38
 80025de:	6be3      	ldr	r3, [r4, #60]	; 0x3c
 80025e0:	05da      	lsls	r2, r3, #23
 80025e2:	d53b      	bpl.n	800265c <USB_HostInit+0xa8>
 80025e4:	9b07      	ldr	r3, [sp, #28]
 80025e6:	2b01      	cmp	r3, #1
 80025e8:	f8d4 3400 	ldr.w	r3, [r4, #1024]	; 0x400
 80025ec:	d138      	bne.n	8002660 <USB_HostInit+0xac>
 80025ee:	f043 0304 	orr.w	r3, r3, #4
 80025f2:	f8c4 3400 	str.w	r3, [r4, #1024]	; 0x400
 80025f6:	2110      	movs	r1, #16
 80025f8:	4620      	mov	r0, r4
 80025fa:	f7ff ff55 	bl	80024a8 <USB_FlushTxFifo>
 80025fe:	4601      	mov	r1, r0
 8002600:	4620      	mov	r0, r4
 8002602:	f7ff ff77 	bl	80024f4 <USB_FlushRxFifo>
 8002606:	4308      	orrs	r0, r1
 8002608:	b2c0      	uxtb	r0, r0
 800260a:	3800      	subs	r0, #0
 800260c:	f04f 0300 	mov.w	r3, #0
 8002610:	9e06      	ldr	r6, [sp, #24]
 8002612:	bf18      	it	ne
 8002614:	2001      	movne	r0, #1
 8002616:	f504 62a0 	add.w	r2, r4, #1280	; 0x500
 800261a:	461d      	mov	r5, r3
 800261c:	f04f 31ff 	mov.w	r1, #4294967295
 8002620:	429e      	cmp	r6, r3
 8002622:	d120      	bne.n	8002666 <USB_HostInit+0xb2>
 8002624:	61a5      	str	r5, [r4, #24]
 8002626:	6161      	str	r1, [r4, #20]
 8002628:	6be3      	ldr	r3, [r4, #60]	; 0x3c
 800262a:	05db      	lsls	r3, r3, #23
 800262c:	d520      	bpl.n	8002670 <USB_HostInit+0xbc>
 800262e:	f44f 7300 	mov.w	r3, #512	; 0x200
 8002632:	6263      	str	r3, [r4, #36]	; 0x24
 8002634:	f103 7380 	add.w	r3, r3, #16777216	; 0x1000000
 8002638:	62a3      	str	r3, [r4, #40]	; 0x28
 800263a:	4b11      	ldr	r3, [pc, #68]	; (8002680 <USB_HostInit+0xcc>)
 800263c:	f8c4 3100 	str.w	r3, [r4, #256]	; 0x100
 8002640:	9b08      	ldr	r3, [sp, #32]
 8002642:	b91b      	cbnz	r3, 800264c <USB_HostInit+0x98>
 8002644:	69a3      	ldr	r3, [r4, #24]
 8002646:	f043 0310 	orr.w	r3, r3, #16
 800264a:	61a3      	str	r3, [r4, #24]
 800264c:	69a2      	ldr	r2, [r4, #24]
 800264e:	4b0d      	ldr	r3, [pc, #52]	; (8002684 <USB_HostInit+0xd0>)
 8002650:	4313      	orrs	r3, r2
 8002652:	61a3      	str	r3, [r4, #24]
 8002654:	e8bd 4070 	ldmia.w	sp!, {r4, r5, r6, lr}
 8002658:	b004      	add	sp, #16
 800265a:	4770      	bx	lr
 800265c:	f8d4 3400 	ldr.w	r3, [r4, #1024]	; 0x400
 8002660:	f023 0304 	bic.w	r3, r3, #4
 8002664:	e7c5      	b.n	80025f2 <USB_HostInit+0x3e>
 8002666:	6091      	str	r1, [r2, #8]
 8002668:	3301      	adds	r3, #1
 800266a:	60d5      	str	r5, [r2, #12]
 800266c:	3220      	adds	r2, #32
 800266e:	e7d7      	b.n	8002620 <USB_HostInit+0x6c>
 8002670:	2380      	movs	r3, #128	; 0x80
 8002672:	6263      	str	r3, [r4, #36]	; 0x24
 8002674:	f503 03c0 	add.w	r3, r3, #6291456	; 0x600000
 8002678:	62a3      	str	r3, [r4, #40]	; 0x28
 800267a:	4b03      	ldr	r3, [pc, #12]	; (8002688 <USB_HostInit+0xd4>)
 800267c:	e7de      	b.n	800263c <USB_HostInit+0x88>
 800267e:	bf00      	nop
 8002680:	00e00300 	.word	0x00e00300
 8002684:	a3200008 	.word	0xa3200008
 8002688:	004000e0 	.word	0x004000e0

0800268c <USB_InitFSLSPClkSel>:
 800268c:	f8d0 3400 	ldr.w	r3, [r0, #1024]	; 0x400
 8002690:	f023 0303 	bic.w	r3, r3, #3
 8002694:	b510      	push	{r4, lr}
 8002696:	f8c0 3400 	str.w	r3, [r0, #1024]	; 0x400
 800269a:	f8d0 4400 	ldr.w	r4, [r0, #1024]	; 0x400
 800269e:	f001 0303 	and.w	r3, r1, #3
 80026a2:	4323      	orrs	r3, r4
 80026a4:	2901      	cmp	r1, #1
 80026a6:	f500 6280 	add.w	r2, r0, #1024	; 0x400
 80026aa:	f8c0 3400 	str.w	r3, [r0, #1024]	; 0x400
 80026ae:	d104      	bne.n	80026ba <USB_InitFSLSPClkSel+0x2e>
 80026b0:	f64b 3380 	movw	r3, #48000	; 0xbb80
 80026b4:	6053      	str	r3, [r2, #4]
 80026b6:	2000      	movs	r0, #0
 80026b8:	bd10      	pop	{r4, pc}
 80026ba:	2902      	cmp	r1, #2
 80026bc:	d1fb      	bne.n	80026b6 <USB_InitFSLSPClkSel+0x2a>
 80026be:	f241 7370 	movw	r3, #6000	; 0x1770
 80026c2:	e7f7      	b.n	80026b4 <USB_InitFSLSPClkSel+0x28>

080026c4 <USB_ResetPort>:
 80026c4:	b537      	push	{r0, r1, r2, r4, r5, lr}
 80026c6:	2500      	movs	r5, #0
 80026c8:	9501      	str	r5, [sp, #4]
 80026ca:	f8d0 3440 	ldr.w	r3, [r0, #1088]	; 0x440
 80026ce:	9301      	str	r3, [sp, #4]
 80026d0:	9b01      	ldr	r3, [sp, #4]
 80026d2:	f023 032e 	bic.w	r3, r3, #46	; 0x2e
 80026d6:	9301      	str	r3, [sp, #4]
 80026d8:	9b01      	ldr	r3, [sp, #4]
 80026da:	f443 7380 	orr.w	r3, r3, #256	; 0x100
 80026de:	4604      	mov	r4, r0
 80026e0:	f8c0 3440 	str.w	r3, [r0, #1088]	; 0x440
 80026e4:	2064      	movs	r0, #100	; 0x64
 80026e6:	f7fe f9f5 	bl	8000ad4 <HAL_Delay>
 80026ea:	9b01      	ldr	r3, [sp, #4]
 80026ec:	f423 7380 	bic.w	r3, r3, #256	; 0x100
 80026f0:	f8c4 3440 	str.w	r3, [r4, #1088]	; 0x440
 80026f4:	200a      	movs	r0, #10
 80026f6:	f7fe f9ed 	bl	8000ad4 <HAL_Delay>
 80026fa:	4628      	mov	r0, r5
 80026fc:	b003      	add	sp, #12
 80026fe:	bd30      	pop	{r4, r5, pc}

08002700 <USB_DriveVbus>:
 8002700:	b082      	sub	sp, #8
 8002702:	2300      	movs	r3, #0
 8002704:	9301      	str	r3, [sp, #4]
 8002706:	f8d0 3440 	ldr.w	r3, [r0, #1088]	; 0x440
 800270a:	9301      	str	r3, [sp, #4]
 800270c:	9b01      	ldr	r3, [sp, #4]
 800270e:	f023 032e 	bic.w	r3, r3, #46	; 0x2e
 8002712:	9301      	str	r3, [sp, #4]
 8002714:	9b01      	ldr	r3, [sp, #4]
 8002716:	04da      	lsls	r2, r3, #19
 8002718:	d406      	bmi.n	8002728 <USB_DriveVbus+0x28>
 800271a:	2901      	cmp	r1, #1
 800271c:	bf02      	ittt	eq
 800271e:	9b01      	ldreq	r3, [sp, #4]
 8002720:	f443 5380 	orreq.w	r3, r3, #4096	; 0x1000
 8002724:	f8c0 3440 	streq.w	r3, [r0, #1088]	; 0x440
 8002728:	9b01      	ldr	r3, [sp, #4]
 800272a:	04db      	lsls	r3, r3, #19
 800272c:	d505      	bpl.n	800273a <USB_DriveVbus+0x3a>
 800272e:	b921      	cbnz	r1, 800273a <USB_DriveVbus+0x3a>
 8002730:	9b01      	ldr	r3, [sp, #4]
 8002732:	f423 5380 	bic.w	r3, r3, #4096	; 0x1000
 8002736:	f8c0 3440 	str.w	r3, [r0, #1088]	; 0x440
 800273a:	2000      	movs	r0, #0
 800273c:	b002      	add	sp, #8
 800273e:	4770      	bx	lr

08002740 <USB_GetHostSpeed>:
 8002740:	b082      	sub	sp, #8
 8002742:	2300      	movs	r3, #0
 8002744:	9301      	str	r3, [sp, #4]
 8002746:	f8d0 3440 	ldr.w	r3, [r0, #1088]	; 0x440
 800274a:	9301      	str	r3, [sp, #4]
 800274c:	9801      	ldr	r0, [sp, #4]
 800274e:	f3c0 4041 	ubfx	r0, r0, #17, #2
 8002752:	b002      	add	sp, #8
 8002754:	4770      	bx	lr

08002756 <USB_GetCurrentFrame>:
 8002756:	f500 6080 	add.w	r0, r0, #1024	; 0x400
 800275a:	6880      	ldr	r0, [r0, #8]
 800275c:	b280      	uxth	r0, r0
 800275e:	4770      	bx	lr

08002760 <USB_HC_Init>:
 8002760:	e92d 41f0 	stmdb	sp!, {r4, r5, r6, r7, r8, lr}
 8002764:	eb00 1741 	add.w	r7, r0, r1, lsl #5
 8002768:	461c      	mov	r4, r3
 800276a:	f89d 601c 	ldrb.w	r6, [sp, #28]
 800276e:	f507 63a0 	add.w	r3, r7, #1280	; 0x500
 8002772:	f04f 35ff 	mov.w	r5, #4294967295
 8002776:	609d      	str	r5, [r3, #8]
 8002778:	fa4f f882 	sxtb.w	r8, r2
 800277c:	2e03      	cmp	r6, #3
 800277e:	d86b      	bhi.n	8002858 <USB_HC_Init+0xf8>
 8002780:	e8df f006 	tbb	[pc, r6]
 8002784:	59026002 	.word	0x59026002
 8002788:	f240 459d 	movw	r5, #1181	; 0x49d
 800278c:	f1b8 0f00 	cmp.w	r8, #0
 8002790:	60dd      	str	r5, [r3, #12]
 8002792:	da03      	bge.n	800279c <USB_HC_Init+0x3c>
 8002794:	68dd      	ldr	r5, [r3, #12]
 8002796:	f445 7580 	orr.w	r5, r5, #256	; 0x100
 800279a:	e04a      	b.n	8002832 <USB_HC_Init+0xd2>
 800279c:	6bc5      	ldr	r5, [r0, #60]	; 0x3c
 800279e:	05ed      	lsls	r5, r5, #23
 80027a0:	d444      	bmi.n	800282c <USB_HC_Init+0xcc>
 80027a2:	2500      	movs	r5, #0
 80027a4:	f8d3 c00c 	ldr.w	ip, [r3, #12]
 80027a8:	f04c 0c02 	orr.w	ip, ip, #2
 80027ac:	f8c3 c00c 	str.w	ip, [r3, #12]
 80027b0:	f8d0 e418 	ldr.w	lr, [r0, #1048]	; 0x418
 80027b4:	f001 010f 	and.w	r1, r1, #15
 80027b8:	2301      	movs	r3, #1
 80027ba:	408b      	lsls	r3, r1
 80027bc:	ea43 030e 	orr.w	r3, r3, lr
 80027c0:	f8c0 3418 	str.w	r3, [r0, #1048]	; 0x418
 80027c4:	6983      	ldr	r3, [r0, #24]
 80027c6:	f043 7300 	orr.w	r3, r3, #33554432	; 0x2000000
 80027ca:	6183      	str	r3, [r0, #24]
 80027cc:	f7ff ffb8 	bl	8002740 <USB_GetHostSpeed>
 80027d0:	f89d 3018 	ldrb.w	r3, [sp, #24]
 80027d4:	ea4f 78d8 	mov.w	r8, r8, lsr #31
 80027d8:	2b02      	cmp	r3, #2
 80027da:	ea4f 38c8 	mov.w	r8, r8, lsl #15
 80027de:	d13d      	bne.n	800285c <USB_HC_Init+0xfc>
 80027e0:	3802      	subs	r0, #2
 80027e2:	bf18      	it	ne
 80027e4:	2001      	movne	r0, #1
 80027e6:	0441      	lsls	r1, r0, #17
 80027e8:	f8bd 0020 	ldrh.w	r0, [sp, #32]
 80027ec:	05a3      	lsls	r3, r4, #22
 80027ee:	f3c0 000a 	ubfx	r0, r0, #0, #11
 80027f2:	f003 53fe 	and.w	r3, r3, #532676608	; 0x1fc00000
 80027f6:	02d2      	lsls	r2, r2, #11
 80027f8:	4303      	orrs	r3, r0
 80027fa:	f402 42f0 	and.w	r2, r2, #30720	; 0x7800
 80027fe:	4313      	orrs	r3, r2
 8002800:	04b2      	lsls	r2, r6, #18
 8002802:	ea43 0308 	orr.w	r3, r3, r8
 8002806:	f402 2240 	and.w	r2, r2, #786432	; 0xc0000
 800280a:	4313      	orrs	r3, r2
 800280c:	430b      	orrs	r3, r1
 800280e:	f006 06fd 	and.w	r6, r6, #253	; 0xfd
 8002812:	f8c7 3500 	str.w	r3, [r7, #1280]	; 0x500
 8002816:	2e01      	cmp	r6, #1
 8002818:	bf02      	ittt	eq
 800281a:	f8d7 3500 	ldreq.w	r3, [r7, #1280]	; 0x500
 800281e:	f043 5300 	orreq.w	r3, r3, #536870912	; 0x20000000
 8002822:	f8c7 3500 	streq.w	r3, [r7, #1280]	; 0x500
 8002826:	4628      	mov	r0, r5
 8002828:	e8bd 81f0 	ldmia.w	sp!, {r4, r5, r6, r7, r8, pc}
 800282c:	68dd      	ldr	r5, [r3, #12]
 800282e:	f045 0560 	orr.w	r5, r5, #96	; 0x60
 8002832:	60dd      	str	r5, [r3, #12]
 8002834:	e7b5      	b.n	80027a2 <USB_HC_Init+0x42>
 8002836:	f240 659d 	movw	r5, #1693	; 0x69d
 800283a:	f1b8 0f00 	cmp.w	r8, #0
 800283e:	60dd      	str	r5, [r3, #12]
 8002840:	daaf      	bge.n	80027a2 <USB_HC_Init+0x42>
 8002842:	e7a7      	b.n	8002794 <USB_HC_Init+0x34>
 8002844:	f240 2525 	movw	r5, #549	; 0x225
 8002848:	f1b8 0f00 	cmp.w	r8, #0
 800284c:	60dd      	str	r5, [r3, #12]
 800284e:	daa8      	bge.n	80027a2 <USB_HC_Init+0x42>
 8002850:	68dd      	ldr	r5, [r3, #12]
 8002852:	f445 75c0 	orr.w	r5, r5, #384	; 0x180
 8002856:	e7ec      	b.n	8002832 <USB_HC_Init+0xd2>
 8002858:	2501      	movs	r5, #1
 800285a:	e7a3      	b.n	80027a4 <USB_HC_Init+0x44>
 800285c:	2100      	movs	r1, #0
 800285e:	e7c3      	b.n	80027e8 <USB_HC_Init+0x88>

08002860 <USB_HC_ReadInterrupt>:
 8002860:	f500 6080 	add.w	r0, r0, #1024	; 0x400
 8002864:	6940      	ldr	r0, [r0, #20]
 8002866:	b280      	uxth	r0, r0
 8002868:	4770      	bx	lr

0800286a <USB_HC_Halt>:
 800286a:	b537      	push	{r0, r1, r2, r4, r5, lr}
 800286c:	2300      	movs	r3, #0
 800286e:	eb00 1141 	add.w	r1, r0, r1, lsl #5
 8002872:	9301      	str	r3, [sp, #4]
 8002874:	f8d1 3500 	ldr.w	r3, [r1, #1280]	; 0x500
 8002878:	f8d1 4500 	ldr.w	r4, [r1, #1280]	; 0x500
 800287c:	6885      	ldr	r5, [r0, #8]
 800287e:	06ad      	lsls	r5, r5, #26
 8002880:	f501 62a0 	add.w	r2, r1, #1280	; 0x500
 8002884:	ea4f 4393 	mov.w	r3, r3, lsr #18
 8002888:	d501      	bpl.n	800288e <USB_HC_Halt+0x24>
 800288a:	2c00      	cmp	r4, #0
 800288c:	da25      	bge.n	80028da <USB_HC_Halt+0x70>
 800288e:	f013 0f01 	tst.w	r3, #1
 8002892:	f8d1 3500 	ldr.w	r3, [r1, #1280]	; 0x500
 8002896:	f043 4380 	orr.w	r3, r3, #1073741824	; 0x40000000
 800289a:	f8c1 3500 	str.w	r3, [r1, #1280]	; 0x500
 800289e:	d11f      	bne.n	80028e0 <USB_HC_Halt+0x76>
 80028a0:	6883      	ldr	r3, [r0, #8]
 80028a2:	069b      	lsls	r3, r3, #26
 80028a4:	d419      	bmi.n	80028da <USB_HC_Halt+0x70>
 80028a6:	6ac3      	ldr	r3, [r0, #44]	; 0x2c
 80028a8:	f413 0f7f 	tst.w	r3, #16711680	; 0xff0000
 80028ac:	f8d1 3500 	ldr.w	r3, [r1, #1280]	; 0x500
 80028b0:	d132      	bne.n	8002918 <USB_HC_Halt+0xae>
 80028b2:	f023 4300 	bic.w	r3, r3, #2147483648	; 0x80000000
 80028b6:	f8c1 3500 	str.w	r3, [r1, #1280]	; 0x500
 80028ba:	f8d1 3500 	ldr.w	r3, [r1, #1280]	; 0x500
 80028be:	f043 4300 	orr.w	r3, r3, #2147483648	; 0x80000000
 80028c2:	f8c1 3500 	str.w	r3, [r1, #1280]	; 0x500
 80028c6:	9b01      	ldr	r3, [sp, #4]
 80028c8:	3301      	adds	r3, #1
 80028ca:	9301      	str	r3, [sp, #4]
 80028cc:	9b01      	ldr	r3, [sp, #4]
 80028ce:	f5b3 7f7a 	cmp.w	r3, #1000	; 0x3e8
 80028d2:	d802      	bhi.n	80028da <USB_HC_Halt+0x70>
 80028d4:	6813      	ldr	r3, [r2, #0]
 80028d6:	2b00      	cmp	r3, #0
 80028d8:	dbf5      	blt.n	80028c6 <USB_HC_Halt+0x5c>
 80028da:	2000      	movs	r0, #0
 80028dc:	b003      	add	sp, #12
 80028de:	bd30      	pop	{r4, r5, pc}
 80028e0:	f8d0 3410 	ldr.w	r3, [r0, #1040]	; 0x410
 80028e4:	f413 0f7f 	tst.w	r3, #16711680	; 0xff0000
 80028e8:	f8d1 3500 	ldr.w	r3, [r1, #1280]	; 0x500
 80028ec:	d114      	bne.n	8002918 <USB_HC_Halt+0xae>
 80028ee:	f023 4300 	bic.w	r3, r3, #2147483648	; 0x80000000
 80028f2:	f8c1 3500 	str.w	r3, [r1, #1280]	; 0x500
 80028f6:	f8d1 3500 	ldr.w	r3, [r1, #1280]	; 0x500
 80028fa:	f043 4300 	orr.w	r3, r3, #2147483648	; 0x80000000
 80028fe:	f8c1 3500 	str.w	r3, [r1, #1280]	; 0x500
 8002902:	9b01      	ldr	r3, [sp, #4]
 8002904:	3301      	adds	r3, #1
 8002906:	9301      	str	r3, [sp, #4]
 8002908:	9b01      	ldr	r3, [sp, #4]
 800290a:	f5b3 7f7a 	cmp.w	r3, #1000	; 0x3e8
 800290e:	d8e4      	bhi.n	80028da <USB_HC_Halt+0x70>
 8002910:	6813      	ldr	r3, [r2, #0]
 8002912:	2b00      	cmp	r3, #0
 8002914:	dbf5      	blt.n	8002902 <USB_HC_Halt+0x98>
 8002916:	e7e0      	b.n	80028da <USB_HC_Halt+0x70>
 8002918:	f043 4300 	orr.w	r3, r3, #2147483648	; 0x80000000
 800291c:	f8c1 3500 	str.w	r3, [r1, #1280]	; 0x500
 8002920:	e7db      	b.n	80028da <USB_HC_Halt+0x70>
	...

08002924 <USB_DoPing>:
 8002924:	eb00 1041 	add.w	r0, r0, r1, lsl #5
 8002928:	4a06      	ldr	r2, [pc, #24]	; (8002944 <USB_DoPing+0x20>)
 800292a:	f8c0 2510 	str.w	r2, [r0, #1296]	; 0x510
 800292e:	f8d0 3500 	ldr.w	r3, [r0, #1280]	; 0x500
 8002932:	f023 4380 	bic.w	r3, r3, #1073741824	; 0x40000000
 8002936:	f043 4300 	orr.w	r3, r3, #2147483648	; 0x80000000
 800293a:	f8c0 3500 	str.w	r3, [r0, #1280]	; 0x500
 800293e:	2000      	movs	r0, #0
 8002940:	4770      	bx	lr
 8002942:	bf00      	nop
 8002944:	80080000 	.word	0x80080000

08002948 <USB_HC_StartXfer>:
 8002948:	e92d 41ff 	stmdb	sp!, {r0, r1, r2, r3, r4, r5, r6, r7, r8, lr}
 800294c:	6bc3      	ldr	r3, [r0, #60]	; 0x3c
 800294e:	05db      	lsls	r3, r3, #23
 8002950:	460c      	mov	r4, r1
 8002952:	4605      	mov	r5, r0
 8002954:	7849      	ldrb	r1, [r1, #1]
 8002956:	d50f      	bpl.n	8002978 <USB_HC_StartXfer+0x30>
 8002958:	7923      	ldrb	r3, [r4, #4]
 800295a:	b96b      	cbnz	r3, 8002978 <USB_HC_StartXfer+0x30>
 800295c:	2a01      	cmp	r2, #1
 800295e:	d167      	bne.n	8002a30 <USB_HC_StartXfer+0xe8>
 8002960:	79e3      	ldrb	r3, [r4, #7]
 8002962:	f013 0ffd 	tst.w	r3, #253	; 0xfd
 8002966:	d107      	bne.n	8002978 <USB_HC_StartXfer+0x30>
 8002968:	eb00 1341 	add.w	r3, r0, r1, lsl #5
 800296c:	f8d3 050c 	ldr.w	r0, [r3, #1292]	; 0x50c
 8002970:	f020 0070 	bic.w	r0, r0, #112	; 0x70
 8002974:	f8c3 050c 	str.w	r0, [r3, #1292]	; 0x50c
 8002978:	6963      	ldr	r3, [r4, #20]
 800297a:	2b00      	cmp	r3, #0
 800297c:	d063      	beq.n	8002a46 <USB_HC_StartXfer+0xfe>
 800297e:	8926      	ldrh	r6, [r4, #8]
 8002980:	1e58      	subs	r0, r3, #1
 8002982:	4430      	add	r0, r6
 8002984:	fbb0 f0f6 	udiv	r0, r0, r6
 8002988:	b280      	uxth	r0, r0
 800298a:	f5b0 7f80 	cmp.w	r0, #256	; 0x100
 800298e:	bf28      	it	cs
 8002990:	f44f 7080 	movcs.w	r0, #256	; 0x100
 8002994:	78e7      	ldrb	r7, [r4, #3]
 8002996:	2f00      	cmp	r7, #0
 8002998:	d057      	beq.n	8002a4a <USB_HC_StartXfer+0x102>
 800299a:	f8b4 8008 	ldrh.w	r8, [r4, #8]
 800299e:	fb00 f808 	mul.w	r8, r0, r8
 80029a2:	f894 c00a 	ldrb.w	ip, [r4, #10]
 80029a6:	f8c4 8010 	str.w	r8, [r4, #16]
 80029aa:	ea4f 7c4c 	mov.w	ip, ip, lsl #29
 80029ae:	f00c 4cc0 	and.w	ip, ip, #1610612736	; 0x60000000
 80029b2:	eb05 1641 	add.w	r6, r5, r1, lsl #5
 80029b6:	ea4c 40c0 	orr.w	r0, ip, r0, lsl #19
 80029ba:	f3c8 0812 	ubfx	r8, r8, #0, #19
 80029be:	ea40 0008 	orr.w	r0, r0, r8
 80029c2:	f8c6 0510 	str.w	r0, [r6, #1296]	; 0x510
 80029c6:	b112      	cbz	r2, 80029ce <USB_HC_StartXfer+0x86>
 80029c8:	68e0      	ldr	r0, [r4, #12]
 80029ca:	f8c6 0514 	str.w	r0, [r6, #1300]	; 0x514
 80029ce:	f8d5 0408 	ldr.w	r0, [r5, #1032]	; 0x408
 80029d2:	f8d6 e500 	ldr.w	lr, [r6, #1280]	; 0x500
 80029d6:	f02e 5e00 	bic.w	lr, lr, #536870912	; 0x20000000
 80029da:	f8c6 e500 	str.w	lr, [r6, #1280]	; 0x500
 80029de:	43c0      	mvns	r0, r0
 80029e0:	f8d6 e500 	ldr.w	lr, [r6, #1280]	; 0x500
 80029e4:	0740      	lsls	r0, r0, #29
 80029e6:	f000 5000 	and.w	r0, r0, #536870912	; 0x20000000
 80029ea:	ea40 000e 	orr.w	r0, r0, lr
 80029ee:	f8c6 0500 	str.w	r0, [r6, #1280]	; 0x500
 80029f2:	f8d6 0500 	ldr.w	r0, [r6, #1280]	; 0x500
 80029f6:	9003      	str	r0, [sp, #12]
 80029f8:	9803      	ldr	r0, [sp, #12]
 80029fa:	f020 4080 	bic.w	r0, r0, #1073741824	; 0x40000000
 80029fe:	9003      	str	r0, [sp, #12]
 8002a00:	f505 6c80 	add.w	ip, r5, #1024	; 0x400
 8002a04:	9803      	ldr	r0, [sp, #12]
 8002a06:	b317      	cbz	r7, 8002a4e <USB_HC_StartXfer+0x106>
 8002a08:	f440 4000 	orr.w	r0, r0, #32768	; 0x8000
 8002a0c:	9003      	str	r0, [sp, #12]
 8002a0e:	9803      	ldr	r0, [sp, #12]
 8002a10:	f040 4000 	orr.w	r0, r0, #2147483648	; 0x80000000
 8002a14:	9003      	str	r0, [sp, #12]
 8002a16:	9803      	ldr	r0, [sp, #12]
 8002a18:	f8c6 0500 	str.w	r0, [r6, #1280]	; 0x500
 8002a1c:	4317      	orrs	r7, r2
 8002a1e:	d10e      	bne.n	8002a3e <USB_HC_StartXfer+0xf6>
 8002a20:	b16b      	cbz	r3, 8002a3e <USB_HC_StartXfer+0xf6>
 8002a22:	79e2      	ldrb	r2, [r4, #7]
 8002a24:	2a03      	cmp	r2, #3
 8002a26:	d820      	bhi.n	8002a6a <USB_HC_StartXfer+0x122>
 8002a28:	e8df f002 	tbb	[pc, r2]
 8002a2c:	28142814 	.word	0x28142814
 8002a30:	2a00      	cmp	r2, #0
 8002a32:	d1a1      	bne.n	8002978 <USB_HC_StartXfer+0x30>
 8002a34:	7963      	ldrb	r3, [r4, #5]
 8002a36:	2b01      	cmp	r3, #1
 8002a38:	d19e      	bne.n	8002978 <USB_HC_StartXfer+0x30>
 8002a3a:	f7ff ff73 	bl	8002924 <USB_DoPing>
 8002a3e:	2000      	movs	r0, #0
 8002a40:	b004      	add	sp, #16
 8002a42:	e8bd 81f0 	ldmia.w	sp!, {r4, r5, r6, r7, r8, pc}
 8002a46:	2001      	movs	r0, #1
 8002a48:	e7a4      	b.n	8002994 <USB_HC_StartXfer+0x4c>
 8002a4a:	4698      	mov	r8, r3
 8002a4c:	e7a9      	b.n	80029a2 <USB_HC_StartXfer+0x5a>
 8002a4e:	f420 4000 	bic.w	r0, r0, #32768	; 0x8000
 8002a52:	e7db      	b.n	8002a0c <USB_HC_StartXfer+0xc4>
 8002a54:	6ae8      	ldr	r0, [r5, #44]	; 0x2c
 8002a56:	1cda      	adds	r2, r3, #3
 8002a58:	b280      	uxth	r0, r0
 8002a5a:	f3c2 028f 	ubfx	r2, r2, #2, #16
 8002a5e:	4290      	cmp	r0, r2
 8002a60:	d203      	bcs.n	8002a6a <USB_HC_StartXfer+0x122>
 8002a62:	69aa      	ldr	r2, [r5, #24]
 8002a64:	f042 0220 	orr.w	r2, r2, #32
 8002a68:	61aa      	str	r2, [r5, #24]
 8002a6a:	2200      	movs	r2, #0
 8002a6c:	9200      	str	r2, [sp, #0]
 8002a6e:	b29b      	uxth	r3, r3
 8002a70:	460a      	mov	r2, r1
 8002a72:	4628      	mov	r0, r5
 8002a74:	68e1      	ldr	r1, [r4, #12]
 8002a76:	f7ff fd61 	bl	800253c <USB_WritePacket>
 8002a7a:	e7e0      	b.n	8002a3e <USB_HC_StartXfer+0xf6>
 8002a7c:	f8dc 0010 	ldr.w	r0, [ip, #16]
 8002a80:	1cda      	adds	r2, r3, #3
 8002a82:	b280      	uxth	r0, r0
 8002a84:	f3c2 028f 	ubfx	r2, r2, #2, #16
 8002a88:	4290      	cmp	r0, r2
 8002a8a:	d2ee      	bcs.n	8002a6a <USB_HC_StartXfer+0x122>
 8002a8c:	69aa      	ldr	r2, [r5, #24]
 8002a8e:	f042 6280 	orr.w	r2, r2, #67108864	; 0x4000000
 8002a92:	e7e9      	b.n	8002a68 <USB_HC_StartXfer+0x120>

08002a94 <USB_StopHost>:
 8002a94:	b537      	push	{r0, r1, r2, r4, r5, lr}
 8002a96:	2300      	movs	r3, #0
 8002a98:	9301      	str	r3, [sp, #4]
 8002a9a:	6883      	ldr	r3, [r0, #8]
 8002a9c:	f023 0301 	bic.w	r3, r3, #1
 8002aa0:	6083      	str	r3, [r0, #8]
 8002aa2:	2110      	movs	r1, #16
 8002aa4:	4604      	mov	r4, r0
 8002aa6:	f7ff fcff 	bl	80024a8 <USB_FlushTxFifo>
 8002aaa:	4601      	mov	r1, r0
 8002aac:	4620      	mov	r0, r4
 8002aae:	f7ff fd21 	bl	80024f4 <USB_FlushRxFifo>
 8002ab2:	4308      	orrs	r0, r1
 8002ab4:	b2c0      	uxtb	r0, r0
 8002ab6:	3800      	subs	r0, #0
 8002ab8:	f504 63a0 	add.w	r3, r4, #1280	; 0x500
 8002abc:	bf18      	it	ne
 8002abe:	2001      	movne	r0, #1
 8002ac0:	f504 65e0 	add.w	r5, r4, #1792	; 0x700
 8002ac4:	4619      	mov	r1, r3
 8002ac6:	680a      	ldr	r2, [r1, #0]
 8002ac8:	f022 2280 	bic.w	r2, r2, #2147516416	; 0x80008000
 8002acc:	f042 4280 	orr.w	r2, r2, #1073741824	; 0x40000000
 8002ad0:	f841 2b20 	str.w	r2, [r1], #32
 8002ad4:	42a9      	cmp	r1, r5
 8002ad6:	d1f6      	bne.n	8002ac6 <USB_StopHost+0x32>
 8002ad8:	681a      	ldr	r2, [r3, #0]
 8002ada:	f422 4200 	bic.w	r2, r2, #32768	; 0x8000
 8002ade:	f042 4240 	orr.w	r2, r2, #3221225472	; 0xc0000000
 8002ae2:	601a      	str	r2, [r3, #0]
 8002ae4:	9a01      	ldr	r2, [sp, #4]
 8002ae6:	3201      	adds	r2, #1
 8002ae8:	9201      	str	r2, [sp, #4]
 8002aea:	9a01      	ldr	r2, [sp, #4]
 8002aec:	f5b2 7f7a 	cmp.w	r2, #1000	; 0x3e8
 8002af0:	d802      	bhi.n	8002af8 <USB_StopHost+0x64>
 8002af2:	681a      	ldr	r2, [r3, #0]
 8002af4:	2a00      	cmp	r2, #0
 8002af6:	dbf5      	blt.n	8002ae4 <USB_StopHost+0x50>
 8002af8:	3320      	adds	r3, #32
 8002afa:	42ab      	cmp	r3, r5
 8002afc:	d1ec      	bne.n	8002ad8 <USB_StopHost+0x44>
 8002afe:	f04f 33ff 	mov.w	r3, #4294967295
 8002b02:	f8c4 3414 	str.w	r3, [r4, #1044]	; 0x414
 8002b06:	6163      	str	r3, [r4, #20]
 8002b08:	68a3      	ldr	r3, [r4, #8]
 8002b0a:	f043 0301 	orr.w	r3, r3, #1
 8002b0e:	60a3      	str	r3, [r4, #8]
 8002b10:	b003      	add	sp, #12
 8002b12:	bd30      	pop	{r4, r5, pc}

08002b14 <USBH_CDC_SOFProcess>:
 8002b14:	2000      	movs	r0, #0
 8002b16:	4770      	bx	lr

08002b18 <USBH_CDC_InterfaceDeInit>:
 8002b18:	b538      	push	{r3, r4, r5, lr}
 8002b1a:	f8d0 337c 	ldr.w	r3, [r0, #892]	; 0x37c
 8002b1e:	69dd      	ldr	r5, [r3, #28]
 8002b20:	7829      	ldrb	r1, [r5, #0]
 8002b22:	4604      	mov	r4, r0
 8002b24:	b139      	cbz	r1, 8002b36 <USBH_CDC_InterfaceDeInit+0x1e>
 8002b26:	f000 ff22 	bl	800396e <USBH_ClosePipe>
 8002b2a:	7829      	ldrb	r1, [r5, #0]
 8002b2c:	4620      	mov	r0, r4
 8002b2e:	f000 ff3b 	bl	80039a8 <USBH_FreePipe>
 8002b32:	2300      	movs	r3, #0
 8002b34:	702b      	strb	r3, [r5, #0]
 8002b36:	7b29      	ldrb	r1, [r5, #12]
 8002b38:	b141      	cbz	r1, 8002b4c <USBH_CDC_InterfaceDeInit+0x34>
 8002b3a:	4620      	mov	r0, r4
 8002b3c:	f000 ff17 	bl	800396e <USBH_ClosePipe>
 8002b40:	7b29      	ldrb	r1, [r5, #12]
 8002b42:	4620      	mov	r0, r4
 8002b44:	f000 ff30 	bl	80039a8 <USBH_FreePipe>
 8002b48:	2300      	movs	r3, #0
 8002b4a:	732b      	strb	r3, [r5, #12]
 8002b4c:	7b69      	ldrb	r1, [r5, #13]
 8002b4e:	b141      	cbz	r1, 8002b62 <USBH_CDC_InterfaceDeInit+0x4a>
 8002b50:	4620      	mov	r0, r4
 8002b52:	f000 ff0c 	bl	800396e <USBH_ClosePipe>
 8002b56:	7b69      	ldrb	r1, [r5, #13]
 8002b58:	4620      	mov	r0, r4
 8002b5a:	f000 ff25 	bl	80039a8 <USBH_FreePipe>
 8002b5e:	2300      	movs	r3, #0
 8002b60:	736b      	strb	r3, [r5, #13]
 8002b62:	f8d4 337c 	ldr.w	r3, [r4, #892]	; 0x37c
 8002b66:	69d8      	ldr	r0, [r3, #28]
 8002b68:	b128      	cbz	r0, 8002b76 <USBH_CDC_InterfaceDeInit+0x5e>
 8002b6a:	f001 f87b 	bl	8003c64 <free>
 8002b6e:	f8d4 337c 	ldr.w	r3, [r4, #892]	; 0x37c
 8002b72:	2200      	movs	r2, #0
 8002b74:	61da      	str	r2, [r3, #28]
 8002b76:	2000      	movs	r0, #0
 8002b78:	bd38      	pop	{r3, r4, r5, pc}

08002b7a <USBH_CDC_InterfaceInit>:
 8002b7a:	e92d 41ff 	stmdb	sp!, {r0, r1, r2, r3, r4, r5, r6, r7, r8, lr}
 8002b7e:	2202      	movs	r2, #2
 8002b80:	2301      	movs	r3, #1
 8002b82:	4611      	mov	r1, r2
 8002b84:	4605      	mov	r5, r0
 8002b86:	f000 f9c5 	bl	8002f14 <USBH_FindInterface>
 8002b8a:	2801      	cmp	r0, #1
 8002b8c:	4606      	mov	r6, r0
 8002b8e:	d904      	bls.n	8002b9a <USBH_CDC_InterfaceInit+0x20>
 8002b90:	2702      	movs	r7, #2
 8002b92:	4638      	mov	r0, r7
 8002b94:	b004      	add	sp, #16
 8002b96:	e8bd 81f0 	ldmia.w	sp!, {r4, r5, r6, r7, r8, pc}
 8002b9a:	4601      	mov	r1, r0
 8002b9c:	4628      	mov	r0, r5
 8002b9e:	f000 f9b0 	bl	8002f02 <USBH_SelectInterface>
 8002ba2:	4607      	mov	r7, r0
 8002ba4:	2800      	cmp	r0, #0
 8002ba6:	d1f3      	bne.n	8002b90 <USBH_CDC_InterfaceInit+0x16>
 8002ba8:	2050      	movs	r0, #80	; 0x50
 8002baa:	f8d5 837c 	ldr.w	r8, [r5, #892]	; 0x37c
 8002bae:	f001 f851 	bl	8003c54 <malloc>
 8002bb2:	4604      	mov	r4, r0
 8002bb4:	f8c8 001c 	str.w	r0, [r8, #28]
 8002bb8:	2800      	cmp	r0, #0
 8002bba:	d0e9      	beq.n	8002b90 <USBH_CDC_InterfaceInit+0x16>
 8002bbc:	2250      	movs	r2, #80	; 0x50
 8002bbe:	4639      	mov	r1, r7
 8002bc0:	f001 f904 	bl	8003dcc <memset>
 8002bc4:	231a      	movs	r3, #26
 8002bc6:	fb03 5606 	mla	r6, r3, r6, r5
 8002bca:	4628      	mov	r0, r5
 8002bcc:	f996 234e 	ldrsb.w	r2, [r6, #846]	; 0x34e
 8002bd0:	f896 334e 	ldrb.w	r3, [r6, #846]	; 0x34e
 8002bd4:	2a00      	cmp	r2, #0
 8002bd6:	bfb8      	it	lt
 8002bd8:	7063      	strblt	r3, [r4, #1]
 8002bda:	7861      	ldrb	r1, [r4, #1]
 8002bdc:	bfbc      	itt	lt
 8002bde:	f8b6 3350 	ldrhlt.w	r3, [r6, #848]	; 0x350
 8002be2:	8163      	strhlt	r3, [r4, #10]
 8002be4:	f000 fec8 	bl	8003978 <USBH_AllocPipe>
 8002be8:	8963      	ldrh	r3, [r4, #10]
 8002bea:	9302      	str	r3, [sp, #8]
 8002bec:	2303      	movs	r3, #3
 8002bee:	9301      	str	r3, [sp, #4]
 8002bf0:	f895 331d 	ldrb.w	r3, [r5, #797]	; 0x31d
 8002bf4:	7862      	ldrb	r2, [r4, #1]
 8002bf6:	7020      	strb	r0, [r4, #0]
 8002bf8:	4601      	mov	r1, r0
 8002bfa:	9300      	str	r3, [sp, #0]
 8002bfc:	4628      	mov	r0, r5
 8002bfe:	f895 331c 	ldrb.w	r3, [r5, #796]	; 0x31c
 8002c02:	f000 fea5 	bl	8003950 <USBH_OpenPipe>
 8002c06:	7821      	ldrb	r1, [r4, #0]
 8002c08:	2200      	movs	r2, #0
 8002c0a:	4628      	mov	r0, r5
 8002c0c:	f000 ffb3 	bl	8003b76 <USBH_LL_SetToggle>
 8002c10:	2300      	movs	r3, #0
 8002c12:	461a      	mov	r2, r3
 8002c14:	210a      	movs	r1, #10
 8002c16:	4628      	mov	r0, r5
 8002c18:	f000 f97c 	bl	8002f14 <USBH_FindInterface>
 8002c1c:	2801      	cmp	r0, #1
 8002c1e:	4603      	mov	r3, r0
 8002c20:	d8b6      	bhi.n	8002b90 <USBH_CDC_InterfaceInit+0x16>
 8002c22:	211a      	movs	r1, #26
 8002c24:	fb01 5200 	mla	r2, r1, r0, r5
 8002c28:	fb01 5303 	mla	r3, r1, r3, r5
 8002c2c:	f892 634e 	ldrb.w	r6, [r2, #846]	; 0x34e
 8002c30:	f8b2 0350 	ldrh.w	r0, [r2, #848]	; 0x350
 8002c34:	f992 234e 	ldrsb.w	r2, [r2, #846]	; 0x34e
 8002c38:	f893 1356 	ldrb.w	r1, [r3, #854]	; 0x356
 8002c3c:	2a00      	cmp	r2, #0
 8002c3e:	f8b3 2358 	ldrh.w	r2, [r3, #856]	; 0x358
 8002c42:	f993 3356 	ldrsb.w	r3, [r3, #854]	; 0x356
 8002c46:	bfad      	iteet	ge
 8002c48:	73a6      	strbge	r6, [r4, #14]
 8002c4a:	73e6      	strblt	r6, [r4, #15]
 8002c4c:	8360      	strhlt	r0, [r4, #26]
 8002c4e:	8320      	strhge	r0, [r4, #24]
 8002c50:	2b00      	cmp	r3, #0
 8002c52:	bfac      	ite	ge
 8002c54:	73a1      	strbge	r1, [r4, #14]
 8002c56:	73e1      	strblt	r1, [r4, #15]
 8002c58:	4628      	mov	r0, r5
 8002c5a:	7ba1      	ldrb	r1, [r4, #14]
 8002c5c:	bfb4      	ite	lt
 8002c5e:	8362      	strhlt	r2, [r4, #26]
 8002c60:	8322      	strhge	r2, [r4, #24]
 8002c62:	f000 fe89 	bl	8003978 <USBH_AllocPipe>
 8002c66:	7be1      	ldrb	r1, [r4, #15]
 8002c68:	7360      	strb	r0, [r4, #13]
 8002c6a:	4628      	mov	r0, r5
 8002c6c:	f000 fe84 	bl	8003978 <USBH_AllocPipe>
 8002c70:	8b23      	ldrh	r3, [r4, #24]
 8002c72:	9302      	str	r3, [sp, #8]
 8002c74:	2602      	movs	r6, #2
 8002c76:	f895 331d 	ldrb.w	r3, [r5, #797]	; 0x31d
 8002c7a:	7ba2      	ldrb	r2, [r4, #14]
 8002c7c:	7b61      	ldrb	r1, [r4, #13]
 8002c7e:	7320      	strb	r0, [r4, #12]
 8002c80:	9601      	str	r6, [sp, #4]
 8002c82:	9300      	str	r3, [sp, #0]
 8002c84:	4628      	mov	r0, r5
 8002c86:	f895 331c 	ldrb.w	r3, [r5, #796]	; 0x31c
 8002c8a:	f000 fe61 	bl	8003950 <USBH_OpenPipe>
 8002c8e:	8b63      	ldrh	r3, [r4, #26]
 8002c90:	7be2      	ldrb	r2, [r4, #15]
 8002c92:	7b21      	ldrb	r1, [r4, #12]
 8002c94:	e9cd 6301 	strd	r6, r3, [sp, #4]
 8002c98:	f895 331d 	ldrb.w	r3, [r5, #797]	; 0x31d
 8002c9c:	9300      	str	r3, [sp, #0]
 8002c9e:	2600      	movs	r6, #0
 8002ca0:	f895 331c 	ldrb.w	r3, [r5, #796]	; 0x31c
 8002ca4:	4628      	mov	r0, r5
 8002ca6:	f000 fe53 	bl	8003950 <USBH_OpenPipe>
 8002caa:	7b61      	ldrb	r1, [r4, #13]
 8002cac:	f884 604c 	strb.w	r6, [r4, #76]	; 0x4c
 8002cb0:	4632      	mov	r2, r6
 8002cb2:	4628      	mov	r0, r5
 8002cb4:	f000 ff5f 	bl	8003b76 <USBH_LL_SetToggle>
 8002cb8:	7b21      	ldrb	r1, [r4, #12]
 8002cba:	4632      	mov	r2, r6
 8002cbc:	4628      	mov	r0, r5
 8002cbe:	f000 ff5a 	bl	8003b76 <USBH_LL_SetToggle>
 8002cc2:	e766      	b.n	8002b92 <USBH_CDC_InterfaceInit+0x18>

08002cc4 <USBH_CDC_ClassRequest>:
 8002cc4:	b538      	push	{r3, r4, r5, lr}
 8002cc6:	f8d0 337c 	ldr.w	r3, [r0, #892]	; 0x37c
 8002cca:	69d9      	ldr	r1, [r3, #28]
 8002ccc:	f242 12a1 	movw	r2, #8609	; 0x21a1
 8002cd0:	f44f 23e0 	mov.w	r3, #458752	; 0x70000
 8002cd4:	e9c0 2304 	strd	r2, r3, [r0, #16]
 8002cd8:	3140      	adds	r1, #64	; 0x40
 8002cda:	2207      	movs	r2, #7
 8002cdc:	4604      	mov	r4, r0
 8002cde:	f000 fb65 	bl	80033ac <USBH_CtlReq>
 8002ce2:	4605      	mov	r5, r0
 8002ce4:	b920      	cbnz	r0, 8002cf0 <USBH_CDC_ClassRequest+0x2c>
 8002ce6:	f8d4 33d4 	ldr.w	r3, [r4, #980]	; 0x3d4
 8002cea:	2102      	movs	r1, #2
 8002cec:	4620      	mov	r0, r4
 8002cee:	4798      	blx	r3
 8002cf0:	4628      	mov	r0, r5
 8002cf2:	bd38      	pop	{r3, r4, r5, pc}

08002cf4 <USBH_CDC_TransmitCallback>:
 8002cf4:	4770      	bx	lr

08002cf6 <USBH_CDC_ReceiveCallback>:
 8002cf6:	4770      	bx	lr

08002cf8 <USBH_CDC_LineCodingChanged>:
 8002cf8:	4770      	bx	lr

08002cfa <USBH_CDC_Process>:
 8002cfa:	b573      	push	{r0, r1, r4, r5, r6, lr}
 8002cfc:	f8d0 337c 	ldr.w	r3, [r0, #892]	; 0x37c
 8002d00:	69dc      	ldr	r4, [r3, #28]
 8002d02:	f894 604c 	ldrb.w	r6, [r4, #76]	; 0x4c
 8002d06:	4605      	mov	r5, r0
 8002d08:	2e04      	cmp	r6, #4
 8002d0a:	d818      	bhi.n	8002d3e <USBH_CDC_Process+0x44>
 8002d0c:	e8df f006 	tbb	[pc, r6]
 8002d10:	3e1b0312 	.word	0x3e1b0312
 8002d14:	a8          	.byte	0xa8
 8002d15:	00          	.byte	0x00
 8002d16:	f242 0021 	movw	r0, #8225	; 0x2021
 8002d1a:	f44f 23e0 	mov.w	r3, #458752	; 0x70000
 8002d1e:	6ca1      	ldr	r1, [r4, #72]	; 0x48
 8002d20:	2207      	movs	r2, #7
 8002d22:	e9c5 0304 	strd	r0, r3, [r5, #16]
 8002d26:	4628      	mov	r0, r5
 8002d28:	f000 fb40 	bl	80033ac <USBH_CtlReq>
 8002d2c:	b928      	cbnz	r0, 8002d3a <USBH_CDC_Process+0x40>
 8002d2e:	2302      	movs	r3, #2
 8002d30:	f884 304c 	strb.w	r3, [r4, #76]	; 0x4c
 8002d34:	4630      	mov	r0, r6
 8002d36:	b002      	add	sp, #8
 8002d38:	bd70      	pop	{r4, r5, r6, pc}
 8002d3a:	2801      	cmp	r0, #1
 8002d3c:	d101      	bne.n	8002d42 <USBH_CDC_Process+0x48>
 8002d3e:	2601      	movs	r6, #1
 8002d40:	e7f8      	b.n	8002d34 <USBH_CDC_Process+0x3a>
 8002d42:	2304      	movs	r3, #4
 8002d44:	e7f4      	b.n	8002d30 <USBH_CDC_Process+0x36>
 8002d46:	f242 12a1 	movw	r2, #8609	; 0x21a1
 8002d4a:	f44f 23e0 	mov.w	r3, #458752	; 0x70000
 8002d4e:	e9c0 2304 	strd	r2, r3, [r0, #16]
 8002d52:	f104 0140 	add.w	r1, r4, #64	; 0x40
 8002d56:	2207      	movs	r2, #7
 8002d58:	f000 fb28 	bl	80033ac <USBH_CtlReq>
 8002d5c:	b980      	cbnz	r0, 8002d80 <USBH_CDC_Process+0x86>
 8002d5e:	e9d4 3211 	ldrd	r3, r2, [r4, #68]	; 0x44
 8002d62:	f884 004c 	strb.w	r0, [r4, #76]	; 0x4c
 8002d66:	6851      	ldr	r1, [r2, #4]
 8002d68:	404b      	eors	r3, r1
 8002d6a:	f033 437f 	bics.w	r3, r3, #4278190080	; 0xff000000
 8002d6e:	d1e6      	bne.n	8002d3e <USBH_CDC_Process+0x44>
 8002d70:	6c21      	ldr	r1, [r4, #64]	; 0x40
 8002d72:	6813      	ldr	r3, [r2, #0]
 8002d74:	4299      	cmp	r1, r3
 8002d76:	d1e2      	bne.n	8002d3e <USBH_CDC_Process+0x44>
 8002d78:	4628      	mov	r0, r5
 8002d7a:	f7ff ffbd 	bl	8002cf8 <USBH_CDC_LineCodingChanged>
 8002d7e:	e7de      	b.n	8002d3e <USBH_CDC_Process+0x44>
 8002d80:	2801      	cmp	r0, #1
 8002d82:	d0dc      	beq.n	8002d3e <USBH_CDC_Process+0x44>
 8002d84:	2304      	movs	r3, #4
 8002d86:	f884 304c 	strb.w	r3, [r4, #76]	; 0x4c
 8002d8a:	e7d8      	b.n	8002d3e <USBH_CDC_Process+0x44>
 8002d8c:	f894 004d 	ldrb.w	r0, [r4, #77]	; 0x4d
 8002d90:	2801      	cmp	r0, #1
 8002d92:	d024      	beq.n	8002dde <USBH_CDC_Process+0xe4>
 8002d94:	2802      	cmp	r0, #2
 8002d96:	d031      	beq.n	8002dfc <USBH_CDC_Process+0x102>
 8002d98:	f8d5 337c 	ldr.w	r3, [r5, #892]	; 0x37c
 8002d9c:	69dc      	ldr	r4, [r3, #28]
 8002d9e:	f894 304e 	ldrb.w	r3, [r4, #78]	; 0x4e
 8002da2:	2b03      	cmp	r3, #3
 8002da4:	d04b      	beq.n	8002e3e <USBH_CDC_Process+0x144>
 8002da6:	2b04      	cmp	r3, #4
 8002da8:	d1c9      	bne.n	8002d3e <USBH_CDC_Process+0x44>
 8002daa:	7b21      	ldrb	r1, [r4, #12]
 8002dac:	4628      	mov	r0, r5
 8002dae:	f000 fed1 	bl	8003b54 <USBH_LL_GetURBState>
 8002db2:	2801      	cmp	r0, #1
 8002db4:	4606      	mov	r6, r0
 8002db6:	d1c2      	bne.n	8002d3e <USBH_CDC_Process+0x44>
 8002db8:	7b21      	ldrb	r1, [r4, #12]
 8002dba:	4628      	mov	r0, r5
 8002dbc:	f000 fec6 	bl	8003b4c <USBH_LL_GetLastXferSize>
 8002dc0:	6aa3      	ldr	r3, [r4, #40]	; 0x28
 8002dc2:	4298      	cmp	r0, r3
 8002dc4:	d045      	beq.n	8002e52 <USBH_CDC_Process+0x158>
 8002dc6:	8b62      	ldrh	r2, [r4, #26]
 8002dc8:	4290      	cmp	r0, r2
 8002dca:	d942      	bls.n	8002e52 <USBH_CDC_Process+0x158>
 8002dcc:	1a1b      	subs	r3, r3, r0
 8002dce:	62a3      	str	r3, [r4, #40]	; 0x28
 8002dd0:	6a23      	ldr	r3, [r4, #32]
 8002dd2:	4403      	add	r3, r0
 8002dd4:	6223      	str	r3, [r4, #32]
 8002dd6:	2303      	movs	r3, #3
 8002dd8:	f884 304e 	strb.w	r3, [r4, #78]	; 0x4e
 8002ddc:	e7aa      	b.n	8002d34 <USBH_CDC_Process+0x3a>
 8002dde:	6a66      	ldr	r6, [r4, #36]	; 0x24
 8002de0:	8b22      	ldrh	r2, [r4, #24]
 8002de2:	7b63      	ldrb	r3, [r4, #13]
 8002de4:	69e1      	ldr	r1, [r4, #28]
 8002de6:	9000      	str	r0, [sp, #0]
 8002de8:	4296      	cmp	r6, r2
 8002dea:	bf98      	it	ls
 8002dec:	b2b2      	uxthls	r2, r6
 8002dee:	4628      	mov	r0, r5
 8002df0:	f000 fd87 	bl	8003902 <USBH_BulkSendData>
 8002df4:	2302      	movs	r3, #2
 8002df6:	f884 304d 	strb.w	r3, [r4, #77]	; 0x4d
 8002dfa:	e7cd      	b.n	8002d98 <USBH_CDC_Process+0x9e>
 8002dfc:	7b61      	ldrb	r1, [r4, #13]
 8002dfe:	4628      	mov	r0, r5
 8002e00:	f000 fea8 	bl	8003b54 <USBH_LL_GetURBState>
 8002e04:	2801      	cmp	r0, #1
 8002e06:	d116      	bne.n	8002e36 <USBH_CDC_Process+0x13c>
 8002e08:	6a63      	ldr	r3, [r4, #36]	; 0x24
 8002e0a:	8b21      	ldrh	r1, [r4, #24]
 8002e0c:	428b      	cmp	r3, r1
 8002e0e:	d90c      	bls.n	8002e2a <USBH_CDC_Process+0x130>
 8002e10:	69e2      	ldr	r2, [r4, #28]
 8002e12:	1a5b      	subs	r3, r3, r1
 8002e14:	440a      	add	r2, r1
 8002e16:	6263      	str	r3, [r4, #36]	; 0x24
 8002e18:	61e2      	str	r2, [r4, #28]
 8002e1a:	b94b      	cbnz	r3, 8002e30 <USBH_CDC_Process+0x136>
 8002e1c:	2300      	movs	r3, #0
 8002e1e:	f884 304d 	strb.w	r3, [r4, #77]	; 0x4d
 8002e22:	4628      	mov	r0, r5
 8002e24:	f7ff ff66 	bl	8002cf4 <USBH_CDC_TransmitCallback>
 8002e28:	e7b6      	b.n	8002d98 <USBH_CDC_Process+0x9e>
 8002e2a:	2300      	movs	r3, #0
 8002e2c:	6263      	str	r3, [r4, #36]	; 0x24
 8002e2e:	e7f5      	b.n	8002e1c <USBH_CDC_Process+0x122>
 8002e30:	f884 004d 	strb.w	r0, [r4, #77]	; 0x4d
 8002e34:	e7b0      	b.n	8002d98 <USBH_CDC_Process+0x9e>
 8002e36:	2802      	cmp	r0, #2
 8002e38:	d1ae      	bne.n	8002d98 <USBH_CDC_Process+0x9e>
 8002e3a:	2301      	movs	r3, #1
 8002e3c:	e7db      	b.n	8002df6 <USBH_CDC_Process+0xfc>
 8002e3e:	7b23      	ldrb	r3, [r4, #12]
 8002e40:	8b62      	ldrh	r2, [r4, #26]
 8002e42:	6a21      	ldr	r1, [r4, #32]
 8002e44:	4628      	mov	r0, r5
 8002e46:	f000 fd73 	bl	8003930 <USBH_BulkReceiveData>
 8002e4a:	2304      	movs	r3, #4
 8002e4c:	f884 304e 	strb.w	r3, [r4, #78]	; 0x4e
 8002e50:	e775      	b.n	8002d3e <USBH_CDC_Process+0x44>
 8002e52:	2300      	movs	r3, #0
 8002e54:	f884 304e 	strb.w	r3, [r4, #78]	; 0x4e
 8002e58:	4628      	mov	r0, r5
 8002e5a:	f7ff ff4c 	bl	8002cf6 <USBH_CDC_ReceiveCallback>
 8002e5e:	e769      	b.n	8002d34 <USBH_CDC_Process+0x3a>
 8002e60:	2100      	movs	r1, #0
 8002e62:	f000 fd0a 	bl	800387a <USBH_ClrFeature>
 8002e66:	2800      	cmp	r0, #0
 8002e68:	f47f af69 	bne.w	8002d3e <USBH_CDC_Process+0x44>
 8002e6c:	f884 004c 	strb.w	r0, [r4, #76]	; 0x4c
 8002e70:	e765      	b.n	8002d3e <USBH_CDC_Process+0x44>

08002e72 <DeInitStateMachine.isra.0>:
 8002e72:	b538      	push	{r3, r4, r5, lr}
 8002e74:	2540      	movs	r5, #64	; 0x40
 8002e76:	4604      	mov	r4, r0
 8002e78:	462a      	mov	r2, r5
 8002e7a:	2100      	movs	r1, #0
 8002e7c:	f500 7061 	add.w	r0, r0, #900	; 0x384
 8002e80:	f000 ffa4 	bl	8003dcc <memset>
 8002e84:	f44f 7200 	mov.w	r2, #512	; 0x200
 8002e88:	2100      	movs	r1, #0
 8002e8a:	f504 708e 	add.w	r0, r4, #284	; 0x11c
 8002e8e:	f000 ff9d 	bl	8003dcc <memset>
 8002e92:	2300      	movs	r3, #0
 8002e94:	7023      	strb	r3, [r4, #0]
 8002e96:	2201      	movs	r2, #1
 8002e98:	7063      	strb	r3, [r4, #1]
 8002e9a:	f8c4 33c4 	str.w	r3, [r4, #964]	; 0x3c4
 8002e9e:	f44f 7380 	mov.w	r3, #256	; 0x100
 8002ea2:	70a2      	strb	r2, [r4, #2]
 8002ea4:	71a5      	strb	r5, [r4, #6]
 8002ea6:	8322      	strh	r2, [r4, #24]
 8002ea8:	f8c4 331c 	str.w	r3, [r4, #796]	; 0x31c
 8002eac:	bd38      	pop	{r3, r4, r5, pc}

08002eae <USBH_Init>:
 8002eae:	b570      	push	{r4, r5, r6, lr}
 8002eb0:	460e      	mov	r6, r1
 8002eb2:	4604      	mov	r4, r0
 8002eb4:	b1b0      	cbz	r0, 8002ee4 <USBH_Init+0x36>
 8002eb6:	2500      	movs	r5, #0
 8002eb8:	e9c0 55df 	strd	r5, r5, [r0, #892]	; 0x37c
 8002ebc:	f880 23cc 	strb.w	r2, [r0, #972]	; 0x3cc
 8002ec0:	f7ff ffd7 	bl	8002e72 <DeInitStateMachine.isra.0>
 8002ec4:	f884 5320 	strb.w	r5, [r4, #800]	; 0x320
 8002ec8:	f884 5323 	strb.w	r5, [r4, #803]	; 0x323
 8002ecc:	f884 5321 	strb.w	r5, [r4, #801]	; 0x321
 8002ed0:	f884 5322 	strb.w	r5, [r4, #802]	; 0x322
 8002ed4:	b10e      	cbz	r6, 8002eda <USBH_Init+0x2c>
 8002ed6:	f8c4 63d4 	str.w	r6, [r4, #980]	; 0x3d4
 8002eda:	4620      	mov	r0, r4
 8002edc:	f000 fe06 	bl	8003aec <USBH_LL_Init>
 8002ee0:	2000      	movs	r0, #0
 8002ee2:	bd70      	pop	{r4, r5, r6, pc}
 8002ee4:	2002      	movs	r0, #2
 8002ee6:	e7fc      	b.n	8002ee2 <USBH_Init+0x34>

08002ee8 <USBH_RegisterClass>:
 8002ee8:	b149      	cbz	r1, 8002efe <USBH_RegisterClass+0x16>
 8002eea:	f8d0 3380 	ldr.w	r3, [r0, #896]	; 0x380
 8002eee:	b933      	cbnz	r3, 8002efe <USBH_RegisterClass+0x16>
 8002ef0:	2201      	movs	r2, #1
 8002ef2:	f8c0 2380 	str.w	r2, [r0, #896]	; 0x380
 8002ef6:	f8c0 1378 	str.w	r1, [r0, #888]	; 0x378
 8002efa:	4618      	mov	r0, r3
 8002efc:	4770      	bx	lr
 8002efe:	2002      	movs	r0, #2
 8002f00:	4770      	bx	lr

08002f02 <USBH_SelectInterface>:
 8002f02:	f890 333c 	ldrb.w	r3, [r0, #828]	; 0x33c
 8002f06:	428b      	cmp	r3, r1
 8002f08:	bf86      	itte	hi
 8002f0a:	f880 1324 	strbhi.w	r1, [r0, #804]	; 0x324
 8002f0e:	2000      	movhi	r0, #0
 8002f10:	2002      	movls	r0, #2
 8002f12:	4770      	bx	lr

08002f14 <USBH_FindInterface>:
 8002f14:	b570      	push	{r4, r5, r6, lr}
 8002f16:	2400      	movs	r4, #0
 8002f18:	f890 6347 	ldrb.w	r6, [r0, #839]	; 0x347
 8002f1c:	428e      	cmp	r6, r1
 8002f1e:	b2e5      	uxtb	r5, r4
 8002f20:	d001      	beq.n	8002f26 <USBH_FindInterface+0x12>
 8002f22:	29ff      	cmp	r1, #255	; 0xff
 8002f24:	d10b      	bne.n	8002f3e <USBH_FindInterface+0x2a>
 8002f26:	f890 6348 	ldrb.w	r6, [r0, #840]	; 0x348
 8002f2a:	4296      	cmp	r6, r2
 8002f2c:	d001      	beq.n	8002f32 <USBH_FindInterface+0x1e>
 8002f2e:	2aff      	cmp	r2, #255	; 0xff
 8002f30:	d105      	bne.n	8002f3e <USBH_FindInterface+0x2a>
 8002f32:	f890 6349 	ldrb.w	r6, [r0, #841]	; 0x349
 8002f36:	429e      	cmp	r6, r3
 8002f38:	d004      	beq.n	8002f44 <USBH_FindInterface+0x30>
 8002f3a:	2bff      	cmp	r3, #255	; 0xff
 8002f3c:	d002      	beq.n	8002f44 <USBH_FindInterface+0x30>
 8002f3e:	301a      	adds	r0, #26
 8002f40:	b114      	cbz	r4, 8002f48 <USBH_FindInterface+0x34>
 8002f42:	25ff      	movs	r5, #255	; 0xff
 8002f44:	4628      	mov	r0, r5
 8002f46:	bd70      	pop	{r4, r5, r6, pc}
 8002f48:	2401      	movs	r4, #1
 8002f4a:	e7e5      	b.n	8002f18 <USBH_FindInterface+0x4>

08002f4c <USBH_Start>:
 8002f4c:	b510      	push	{r4, lr}
 8002f4e:	4604      	mov	r4, r0
 8002f50:	f000 fe2a 	bl	8003ba8 <USBH_LL_Start>
 8002f54:	2101      	movs	r1, #1
 8002f56:	4620      	mov	r0, r4
 8002f58:	f000 fe00 	bl	8003b5c <USBH_LL_DriverVBUS>
 8002f5c:	2000      	movs	r0, #0
 8002f5e:	bd10      	pop	{r4, pc}

08002f60 <USBH_Process>:
 8002f60:	b570      	push	{r4, r5, r6, lr}
 8002f62:	b086      	sub	sp, #24
 8002f64:	2302      	movs	r3, #2
 8002f66:	f88d 3017 	strb.w	r3, [sp, #23]
 8002f6a:	f890 3321 	ldrb.w	r3, [r0, #801]	; 0x321
 8002f6e:	2b01      	cmp	r3, #1
 8002f70:	bf04      	itt	eq
 8002f72:	2303      	moveq	r3, #3
 8002f74:	7003      	strbeq	r3, [r0, #0]
 8002f76:	7803      	ldrb	r3, [r0, #0]
 8002f78:	4604      	mov	r4, r0
 8002f7a:	2b0b      	cmp	r3, #11
 8002f7c:	d81d      	bhi.n	8002fba <USBH_Process+0x5a>
 8002f7e:	e8df f013 	tbh	[pc, r3, lsl #1]
 8002f82:	000c      	.short	0x000c
 8002f84:	0041001f 	.word	0x0041001f
 8002f88:	001c01ba 	.word	0x001c01ba
 8002f8c:	019e0076 	.word	0x019e0076
 8002f90:	0162015a 	.word	0x0162015a
 8002f94:	017f016b 	.word	0x017f016b
 8002f98:	01b2      	.short	0x01b2
 8002f9a:	f890 3320 	ldrb.w	r3, [r0, #800]	; 0x320
 8002f9e:	b163      	cbz	r3, 8002fba <USBH_Process+0x5a>
 8002fa0:	2301      	movs	r3, #1
 8002fa2:	7003      	strb	r3, [r0, #0]
 8002fa4:	20c8      	movs	r0, #200	; 0xc8
 8002fa6:	f000 fdf5 	bl	8003b94 <USBH_Delay>
 8002faa:	4620      	mov	r0, r4
 8002fac:	f000 fe0e 	bl	8003bcc <USBH_LL_ResetPort>
 8002fb0:	2300      	movs	r3, #0
 8002fb2:	f884 331c 	strb.w	r3, [r4, #796]	; 0x31c
 8002fb6:	f8c4 33c8 	str.w	r3, [r4, #968]	; 0x3c8
 8002fba:	2000      	movs	r0, #0
 8002fbc:	b006      	add	sp, #24
 8002fbe:	bd70      	pop	{r4, r5, r6, pc}
 8002fc0:	f890 3323 	ldrb.w	r3, [r0, #803]	; 0x323
 8002fc4:	2b01      	cmp	r3, #1
 8002fc6:	d105      	bne.n	8002fd4 <USBH_Process+0x74>
 8002fc8:	2300      	movs	r3, #0
 8002fca:	f880 331f 	strb.w	r3, [r0, #799]	; 0x31f
 8002fce:	2302      	movs	r3, #2
 8002fd0:	7023      	strb	r3, [r4, #0]
 8002fd2:	e7f2      	b.n	8002fba <USBH_Process+0x5a>
 8002fd4:	f8d0 33c8 	ldr.w	r3, [r0, #968]	; 0x3c8
 8002fd8:	f5b3 7f7a 	cmp.w	r3, #1000	; 0x3e8
 8002fdc:	d90b      	bls.n	8002ff6 <USBH_Process+0x96>
 8002fde:	f890 331f 	ldrb.w	r3, [r0, #799]	; 0x31f
 8002fe2:	3301      	adds	r3, #1
 8002fe4:	b2db      	uxtb	r3, r3
 8002fe6:	2b03      	cmp	r3, #3
 8002fe8:	f880 331f 	strb.w	r3, [r0, #799]	; 0x31f
 8002fec:	d901      	bls.n	8002ff2 <USBH_Process+0x92>
 8002fee:	230d      	movs	r3, #13
 8002ff0:	e7ee      	b.n	8002fd0 <USBH_Process+0x70>
 8002ff2:	2300      	movs	r3, #0
 8002ff4:	e7ec      	b.n	8002fd0 <USBH_Process+0x70>
 8002ff6:	330a      	adds	r3, #10
 8002ff8:	f8c0 33c8 	str.w	r3, [r0, #968]	; 0x3c8
 8002ffc:	200a      	movs	r0, #10
 8002ffe:	f000 fdc9 	bl	8003b94 <USBH_Delay>
 8003002:	e7da      	b.n	8002fba <USBH_Process+0x5a>
 8003004:	f8d0 33d4 	ldr.w	r3, [r0, #980]	; 0x3d4
 8003008:	b10b      	cbz	r3, 800300e <USBH_Process+0xae>
 800300a:	2104      	movs	r1, #4
 800300c:	4798      	blx	r3
 800300e:	2064      	movs	r0, #100	; 0x64
 8003010:	f000 fdc0 	bl	8003b94 <USBH_Delay>
 8003014:	4620      	mov	r0, r4
 8003016:	f000 fd8f 	bl	8003b38 <USBH_LL_GetSpeed>
 800301a:	2305      	movs	r3, #5
 800301c:	7023      	strb	r3, [r4, #0]
 800301e:	f884 031d 	strb.w	r0, [r4, #797]	; 0x31d
 8003022:	2100      	movs	r1, #0
 8003024:	4620      	mov	r0, r4
 8003026:	f000 fca7 	bl	8003978 <USBH_AllocPipe>
 800302a:	2180      	movs	r1, #128	; 0x80
 800302c:	7160      	strb	r0, [r4, #5]
 800302e:	4620      	mov	r0, r4
 8003030:	f000 fca2 	bl	8003978 <USBH_AllocPipe>
 8003034:	79a3      	ldrb	r3, [r4, #6]
 8003036:	9302      	str	r3, [sp, #8]
 8003038:	2500      	movs	r5, #0
 800303a:	f894 331d 	ldrb.w	r3, [r4, #797]	; 0x31d
 800303e:	7120      	strb	r0, [r4, #4]
 8003040:	4601      	mov	r1, r0
 8003042:	9300      	str	r3, [sp, #0]
 8003044:	9501      	str	r5, [sp, #4]
 8003046:	f894 331c 	ldrb.w	r3, [r4, #796]	; 0x31c
 800304a:	2280      	movs	r2, #128	; 0x80
 800304c:	4620      	mov	r0, r4
 800304e:	f000 fc7f 	bl	8003950 <USBH_OpenPipe>
 8003052:	79a3      	ldrb	r3, [r4, #6]
 8003054:	7961      	ldrb	r1, [r4, #5]
 8003056:	e9cd 5301 	strd	r5, r3, [sp, #4]
 800305a:	f894 331d 	ldrb.w	r3, [r4, #797]	; 0x31d
 800305e:	9300      	str	r3, [sp, #0]
 8003060:	462a      	mov	r2, r5
 8003062:	f894 331c 	ldrb.w	r3, [r4, #796]	; 0x31c
 8003066:	4620      	mov	r0, r4
 8003068:	f000 fc72 	bl	8003950 <USBH_OpenPipe>
 800306c:	e7a5      	b.n	8002fba <USBH_Process+0x5a>
 800306e:	7845      	ldrb	r5, [r0, #1]
 8003070:	2d07      	cmp	r5, #7
 8003072:	d82b      	bhi.n	80030cc <USBH_Process+0x16c>
 8003074:	e8df f005 	tbb	[pc, r5]
 8003078:	8d714104 	.word	0x8d714104
 800307c:	cdbeaf93 	.word	0xcdbeaf93
 8003080:	2108      	movs	r1, #8
 8003082:	f000 fa6b 	bl	800355c <USBH_Get_DevDesc>
 8003086:	4606      	mov	r6, r0
 8003088:	b9f0      	cbnz	r0, 80030c8 <USBH_Process+0x168>
 800308a:	f894 332d 	ldrb.w	r3, [r4, #813]	; 0x32d
 800308e:	71a3      	strb	r3, [r4, #6]
 8003090:	e9cd 0301 	strd	r0, r3, [sp, #4]
 8003094:	f894 331d 	ldrb.w	r3, [r4, #797]	; 0x31d
 8003098:	9300      	str	r3, [sp, #0]
 800309a:	2501      	movs	r5, #1
 800309c:	f894 331c 	ldrb.w	r3, [r4, #796]	; 0x31c
 80030a0:	7065      	strb	r5, [r4, #1]
 80030a2:	7921      	ldrb	r1, [r4, #4]
 80030a4:	2280      	movs	r2, #128	; 0x80
 80030a6:	4620      	mov	r0, r4
 80030a8:	f000 fc52 	bl	8003950 <USBH_OpenPipe>
 80030ac:	79a3      	ldrb	r3, [r4, #6]
 80030ae:	7961      	ldrb	r1, [r4, #5]
 80030b0:	e9cd 6301 	strd	r6, r3, [sp, #4]
 80030b4:	f894 331d 	ldrb.w	r3, [r4, #797]	; 0x31d
 80030b8:	9300      	str	r3, [sp, #0]
 80030ba:	4632      	mov	r2, r6
 80030bc:	f894 331c 	ldrb.w	r3, [r4, #796]	; 0x31c
 80030c0:	4620      	mov	r0, r4
 80030c2:	f000 fc45 	bl	8003950 <USBH_OpenPipe>
 80030c6:	e01e      	b.n	8003106 <USBH_Process+0x1a6>
 80030c8:	2803      	cmp	r0, #3
 80030ca:	d001      	beq.n	80030d0 <USBH_Process+0x170>
 80030cc:	2501      	movs	r5, #1
 80030ce:	e01a      	b.n	8003106 <USBH_Process+0x1a6>
 80030d0:	f894 331e 	ldrb.w	r3, [r4, #798]	; 0x31e
 80030d4:	3301      	adds	r3, #1
 80030d6:	b2db      	uxtb	r3, r3
 80030d8:	2b03      	cmp	r3, #3
 80030da:	f884 331e 	strb.w	r3, [r4, #798]	; 0x31e
 80030de:	d901      	bls.n	80030e4 <USBH_Process+0x184>
 80030e0:	230d      	movs	r3, #13
 80030e2:	e008      	b.n	80030f6 <USBH_Process+0x196>
 80030e4:	7961      	ldrb	r1, [r4, #5]
 80030e6:	4620      	mov	r0, r4
 80030e8:	f000 fc5e 	bl	80039a8 <USBH_FreePipe>
 80030ec:	7921      	ldrb	r1, [r4, #4]
 80030ee:	4620      	mov	r0, r4
 80030f0:	f000 fc5a 	bl	80039a8 <USBH_FreePipe>
 80030f4:	2300      	movs	r3, #0
 80030f6:	7023      	strb	r3, [r4, #0]
 80030f8:	e7e8      	b.n	80030cc <USBH_Process+0x16c>
 80030fa:	2112      	movs	r1, #18
 80030fc:	f000 fa2e 	bl	800355c <USBH_Get_DevDesc>
 8003100:	b998      	cbnz	r0, 800312a <USBH_Process+0x1ca>
 8003102:	2302      	movs	r3, #2
 8003104:	7063      	strb	r3, [r4, #1]
 8003106:	f88d 5017 	strb.w	r5, [sp, #23]
 800310a:	f89d 3017 	ldrb.w	r3, [sp, #23]
 800310e:	f003 02ff 	and.w	r2, r3, #255	; 0xff
 8003112:	2b00      	cmp	r3, #0
 8003114:	f47f af51 	bne.w	8002fba <USBH_Process+0x5a>
 8003118:	f894 3337 	ldrb.w	r3, [r4, #823]	; 0x337
 800311c:	f884 2324 	strb.w	r2, [r4, #804]	; 0x324
 8003120:	2b01      	cmp	r3, #1
 8003122:	f040 8086 	bne.w	8003232 <USBH_Process+0x2d2>
 8003126:	2308      	movs	r3, #8
 8003128:	e752      	b.n	8002fd0 <USBH_Process+0x70>
 800312a:	2803      	cmp	r0, #3
 800312c:	d1ce      	bne.n	80030cc <USBH_Process+0x16c>
 800312e:	f894 331e 	ldrb.w	r3, [r4, #798]	; 0x31e
 8003132:	3301      	adds	r3, #1
 8003134:	b2db      	uxtb	r3, r3
 8003136:	2b03      	cmp	r3, #3
 8003138:	f884 331e 	strb.w	r3, [r4, #798]	; 0x31e
 800313c:	d902      	bls.n	8003144 <USBH_Process+0x1e4>
 800313e:	230d      	movs	r3, #13
 8003140:	7023      	strb	r3, [r4, #0]
 8003142:	e7e0      	b.n	8003106 <USBH_Process+0x1a6>
 8003144:	7961      	ldrb	r1, [r4, #5]
 8003146:	4620      	mov	r0, r4
 8003148:	f000 fc2e 	bl	80039a8 <USBH_FreePipe>
 800314c:	7921      	ldrb	r1, [r4, #4]
 800314e:	4620      	mov	r0, r4
 8003150:	f000 fc2a 	bl	80039a8 <USBH_FreePipe>
 8003154:	2300      	movs	r3, #0
 8003156:	7063      	strb	r3, [r4, #1]
 8003158:	e7f2      	b.n	8003140 <USBH_Process+0x1e0>
 800315a:	2101      	movs	r1, #1
 800315c:	f000 fb66 	bl	800382c <USBH_SetAddress>
 8003160:	4606      	mov	r6, r0
 8003162:	b978      	cbnz	r0, 8003184 <USBH_Process+0x224>
 8003164:	2002      	movs	r0, #2
 8003166:	f000 fd15 	bl	8003b94 <USBH_Delay>
 800316a:	2303      	movs	r3, #3
 800316c:	7063      	strb	r3, [r4, #1]
 800316e:	79a3      	ldrb	r3, [r4, #6]
 8003170:	2501      	movs	r5, #1
 8003172:	e9cd 6301 	strd	r6, r3, [sp, #4]
 8003176:	f894 331d 	ldrb.w	r3, [r4, #797]	; 0x31d
 800317a:	9300      	str	r3, [sp, #0]
 800317c:	f884 531c 	strb.w	r5, [r4, #796]	; 0x31c
 8003180:	462b      	mov	r3, r5
 8003182:	e78e      	b.n	80030a2 <USBH_Process+0x142>
 8003184:	2803      	cmp	r0, #3
 8003186:	d1a1      	bne.n	80030cc <USBH_Process+0x16c>
 8003188:	230d      	movs	r3, #13
 800318a:	7023      	strb	r3, [r4, #0]
 800318c:	2300      	movs	r3, #0
 800318e:	7063      	strb	r3, [r4, #1]
 8003190:	e79c      	b.n	80030cc <USBH_Process+0x16c>
 8003192:	2109      	movs	r1, #9
 8003194:	f000 fa3c 	bl	8003610 <USBH_Get_CfgDesc>
 8003198:	b940      	cbnz	r0, 80031ac <USBH_Process+0x24c>
 800319a:	2304      	movs	r3, #4
 800319c:	e7f7      	b.n	800318e <USBH_Process+0x22e>
 800319e:	f8b0 133a 	ldrh.w	r1, [r0, #826]	; 0x33a
 80031a2:	f000 fa35 	bl	8003610 <USBH_Get_CfgDesc>
 80031a6:	b908      	cbnz	r0, 80031ac <USBH_Process+0x24c>
 80031a8:	2305      	movs	r3, #5
 80031aa:	e7f0      	b.n	800318e <USBH_Process+0x22e>
 80031ac:	2803      	cmp	r0, #3
 80031ae:	d18d      	bne.n	80030cc <USBH_Process+0x16c>
 80031b0:	f894 331e 	ldrb.w	r3, [r4, #798]	; 0x31e
 80031b4:	3301      	adds	r3, #1
 80031b6:	b2db      	uxtb	r3, r3
 80031b8:	2b03      	cmp	r3, #3
 80031ba:	f884 331e 	strb.w	r3, [r4, #798]	; 0x31e
 80031be:	d88f      	bhi.n	80030e0 <USBH_Process+0x180>
 80031c0:	7961      	ldrb	r1, [r4, #5]
 80031c2:	4620      	mov	r0, r4
 80031c4:	f000 fbf0 	bl	80039a8 <USBH_FreePipe>
 80031c8:	7921      	ldrb	r1, [r4, #4]
 80031ca:	4620      	mov	r0, r4
 80031cc:	f000 fbec 	bl	80039a8 <USBH_FreePipe>
 80031d0:	2300      	movs	r3, #0
 80031d2:	7063      	strb	r3, [r4, #1]
 80031d4:	e78f      	b.n	80030f6 <USBH_Process+0x196>
 80031d6:	f890 1334 	ldrb.w	r1, [r0, #820]	; 0x334
 80031da:	b129      	cbz	r1, 80031e8 <USBH_Process+0x288>
 80031dc:	23ff      	movs	r3, #255	; 0xff
 80031de:	f500 728e 	add.w	r2, r0, #284	; 0x11c
 80031e2:	f000 fafc 	bl	80037de <USBH_Get_StringDesc>
 80031e6:	b908      	cbnz	r0, 80031ec <USBH_Process+0x28c>
 80031e8:	2306      	movs	r3, #6
 80031ea:	e7d0      	b.n	800318e <USBH_Process+0x22e>
 80031ec:	2803      	cmp	r0, #3
 80031ee:	f47f af6d 	bne.w	80030cc <USBH_Process+0x16c>
 80031f2:	e7f9      	b.n	80031e8 <USBH_Process+0x288>
 80031f4:	f890 1335 	ldrb.w	r1, [r0, #821]	; 0x335
 80031f8:	b129      	cbz	r1, 8003206 <USBH_Process+0x2a6>
 80031fa:	23ff      	movs	r3, #255	; 0xff
 80031fc:	f500 728e 	add.w	r2, r0, #284	; 0x11c
 8003200:	f000 faed 	bl	80037de <USBH_Get_StringDesc>
 8003204:	b908      	cbnz	r0, 800320a <USBH_Process+0x2aa>
 8003206:	2307      	movs	r3, #7
 8003208:	e7c1      	b.n	800318e <USBH_Process+0x22e>
 800320a:	2803      	cmp	r0, #3
 800320c:	f47f af5e 	bne.w	80030cc <USBH_Process+0x16c>
 8003210:	e7f9      	b.n	8003206 <USBH_Process+0x2a6>
 8003212:	f890 1336 	ldrb.w	r1, [r0, #822]	; 0x336
 8003216:	b909      	cbnz	r1, 800321c <USBH_Process+0x2bc>
 8003218:	2500      	movs	r5, #0
 800321a:	e774      	b.n	8003106 <USBH_Process+0x1a6>
 800321c:	23ff      	movs	r3, #255	; 0xff
 800321e:	f500 728e 	add.w	r2, r0, #284	; 0x11c
 8003222:	f000 fadc 	bl	80037de <USBH_Get_StringDesc>
 8003226:	2800      	cmp	r0, #0
 8003228:	d0f6      	beq.n	8003218 <USBH_Process+0x2b8>
 800322a:	1ec5      	subs	r5, r0, #3
 800322c:	bf18      	it	ne
 800322e:	2501      	movne	r5, #1
 8003230:	e769      	b.n	8003106 <USBH_Process+0x1a6>
 8003232:	2307      	movs	r3, #7
 8003234:	e6cc      	b.n	8002fd0 <USBH_Process+0x70>
 8003236:	f8d0 33d4 	ldr.w	r3, [r0, #980]	; 0x3d4
 800323a:	2b00      	cmp	r3, #0
 800323c:	f43f aebd 	beq.w	8002fba <USBH_Process+0x5a>
 8003240:	2101      	movs	r1, #1
 8003242:	4798      	blx	r3
 8003244:	e76f      	b.n	8003126 <USBH_Process+0x1c6>
 8003246:	f890 133d 	ldrb.w	r1, [r0, #829]	; 0x33d
 800324a:	f000 fafc 	bl	8003846 <USBH_SetCfg>
 800324e:	2800      	cmp	r0, #0
 8003250:	f47f aeb3 	bne.w	8002fba <USBH_Process+0x5a>
 8003254:	2309      	movs	r3, #9
 8003256:	e6bb      	b.n	8002fd0 <USBH_Process+0x70>
 8003258:	f890 333f 	ldrb.w	r3, [r0, #831]	; 0x33f
 800325c:	069b      	lsls	r3, r3, #26
 800325e:	d507      	bpl.n	8003270 <USBH_Process+0x310>
 8003260:	2101      	movs	r1, #1
 8003262:	f000 fafd 	bl	8003860 <USBH_SetFeature>
 8003266:	f88d 0017 	strb.w	r0, [sp, #23]
 800326a:	f89d 3017 	ldrb.w	r3, [sp, #23]
 800326e:	b90b      	cbnz	r3, 8003274 <USBH_Process+0x314>
 8003270:	230a      	movs	r3, #10
 8003272:	e6ad      	b.n	8002fd0 <USBH_Process+0x70>
 8003274:	f89d 3017 	ldrb.w	r3, [sp, #23]
 8003278:	2b03      	cmp	r3, #3
 800327a:	f47f ae9e 	bne.w	8002fba <USBH_Process+0x5a>
 800327e:	e7f7      	b.n	8003270 <USBH_Process+0x310>
 8003280:	f8d0 3380 	ldr.w	r3, [r0, #896]	; 0x380
 8003284:	2b00      	cmp	r3, #0
 8003286:	f43f ae98 	beq.w	8002fba <USBH_Process+0x5a>
 800328a:	f8d0 3378 	ldr.w	r3, [r0, #888]	; 0x378
 800328e:	f890 2347 	ldrb.w	r2, [r0, #839]	; 0x347
 8003292:	7919      	ldrb	r1, [r3, #4]
 8003294:	4291      	cmp	r1, r2
 8003296:	d003      	beq.n	80032a0 <USBH_Process+0x340>
 8003298:	2300      	movs	r3, #0
 800329a:	f8c0 337c 	str.w	r3, [r0, #892]	; 0x37c
 800329e:	e6a6      	b.n	8002fee <USBH_Process+0x8e>
 80032a0:	f8c0 337c 	str.w	r3, [r0, #892]	; 0x37c
 80032a4:	689b      	ldr	r3, [r3, #8]
 80032a6:	4798      	blx	r3
 80032a8:	2800      	cmp	r0, #0
 80032aa:	f47f aea0 	bne.w	8002fee <USBH_Process+0x8e>
 80032ae:	2306      	movs	r3, #6
 80032b0:	7023      	strb	r3, [r4, #0]
 80032b2:	2103      	movs	r1, #3
 80032b4:	f8d4 33d4 	ldr.w	r3, [r4, #980]	; 0x3d4
 80032b8:	4620      	mov	r0, r4
 80032ba:	4798      	blx	r3
 80032bc:	e67d      	b.n	8002fba <USBH_Process+0x5a>
 80032be:	f8d0 337c 	ldr.w	r3, [r0, #892]	; 0x37c
 80032c2:	2b00      	cmp	r3, #0
 80032c4:	f43f ae93 	beq.w	8002fee <USBH_Process+0x8e>
 80032c8:	691b      	ldr	r3, [r3, #16]
 80032ca:	4798      	blx	r3
 80032cc:	f88d 0017 	strb.w	r0, [sp, #23]
 80032d0:	f89d 3017 	ldrb.w	r3, [sp, #23]
 80032d4:	b90b      	cbnz	r3, 80032da <USBH_Process+0x37a>
 80032d6:	230b      	movs	r3, #11
 80032d8:	e67a      	b.n	8002fd0 <USBH_Process+0x70>
 80032da:	f89d 3017 	ldrb.w	r3, [sp, #23]
 80032de:	2b02      	cmp	r3, #2
 80032e0:	f47f ae6b 	bne.w	8002fba <USBH_Process+0x5a>
 80032e4:	e683      	b.n	8002fee <USBH_Process+0x8e>
 80032e6:	f8d0 337c 	ldr.w	r3, [r0, #892]	; 0x37c
 80032ea:	2b00      	cmp	r3, #0
 80032ec:	f43f ae65 	beq.w	8002fba <USBH_Process+0x5a>
 80032f0:	695b      	ldr	r3, [r3, #20]
 80032f2:	4798      	blx	r3
 80032f4:	e661      	b.n	8002fba <USBH_Process+0x5a>
 80032f6:	2500      	movs	r5, #0
 80032f8:	f880 5321 	strb.w	r5, [r0, #801]	; 0x321
 80032fc:	f7ff fdb9 	bl	8002e72 <DeInitStateMachine.isra.0>
 8003300:	f8d4 337c 	ldr.w	r3, [r4, #892]	; 0x37c
 8003304:	b123      	cbz	r3, 8003310 <USBH_Process+0x3b0>
 8003306:	68db      	ldr	r3, [r3, #12]
 8003308:	4620      	mov	r0, r4
 800330a:	4798      	blx	r3
 800330c:	f8c4 537c 	str.w	r5, [r4, #892]	; 0x37c
 8003310:	f8d4 33d4 	ldr.w	r3, [r4, #980]	; 0x3d4
 8003314:	b113      	cbz	r3, 800331c <USBH_Process+0x3bc>
 8003316:	2105      	movs	r1, #5
 8003318:	4620      	mov	r0, r4
 800331a:	4798      	blx	r3
 800331c:	f894 3322 	ldrb.w	r3, [r4, #802]	; 0x322
 8003320:	2b01      	cmp	r3, #1
 8003322:	d106      	bne.n	8003332 <USBH_Process+0x3d2>
 8003324:	2300      	movs	r3, #0
 8003326:	f884 3322 	strb.w	r3, [r4, #802]	; 0x322
 800332a:	4620      	mov	r0, r4
 800332c:	f7ff fe0e 	bl	8002f4c <USBH_Start>
 8003330:	e643      	b.n	8002fba <USBH_Process+0x5a>
 8003332:	4620      	mov	r0, r4
 8003334:	f000 fc38 	bl	8003ba8 <USBH_LL_Start>
 8003338:	e63f      	b.n	8002fba <USBH_Process+0x5a>

0800333a <USBH_LL_SetTimer>:
 800333a:	f8c0 13c4 	str.w	r1, [r0, #964]	; 0x3c4
 800333e:	4770      	bx	lr

08003340 <USBH_LL_IncTimer>:
 8003340:	f8d0 23c4 	ldr.w	r2, [r0, #964]	; 0x3c4
 8003344:	3201      	adds	r2, #1
 8003346:	f8c0 23c4 	str.w	r2, [r0, #964]	; 0x3c4
 800334a:	7802      	ldrb	r2, [r0, #0]
 800334c:	2a0b      	cmp	r2, #11
 800334e:	d104      	bne.n	800335a <USBH_LL_IncTimer+0x1a>
 8003350:	f8d0 337c 	ldr.w	r3, [r0, #892]	; 0x37c
 8003354:	b10b      	cbz	r3, 800335a <USBH_LL_IncTimer+0x1a>
 8003356:	699b      	ldr	r3, [r3, #24]
 8003358:	4718      	bx	r3
 800335a:	4770      	bx	lr

0800335c <USBH_LL_PortEnabled>:
 800335c:	2301      	movs	r3, #1
 800335e:	f880 3323 	strb.w	r3, [r0, #803]	; 0x323
 8003362:	4770      	bx	lr

08003364 <USBH_LL_PortDisabled>:
 8003364:	2300      	movs	r3, #0
 8003366:	f880 3323 	strb.w	r3, [r0, #803]	; 0x323
 800336a:	4770      	bx	lr

0800336c <USBH_LL_Connect>:
 800336c:	2301      	movs	r3, #1
 800336e:	f880 3320 	strb.w	r3, [r0, #800]	; 0x320
 8003372:	2300      	movs	r3, #0
 8003374:	f880 3321 	strb.w	r3, [r0, #801]	; 0x321
 8003378:	f880 3322 	strb.w	r3, [r0, #802]	; 0x322
 800337c:	4618      	mov	r0, r3
 800337e:	4770      	bx	lr

08003380 <USBH_LL_Disconnect>:
 8003380:	b538      	push	{r3, r4, r5, lr}
 8003382:	4604      	mov	r4, r0
 8003384:	2301      	movs	r3, #1
 8003386:	2500      	movs	r5, #0
 8003388:	f880 3321 	strb.w	r3, [r0, #801]	; 0x321
 800338c:	f880 5323 	strb.w	r5, [r0, #803]	; 0x323
 8003390:	f880 5320 	strb.w	r5, [r0, #800]	; 0x320
 8003394:	f000 fc11 	bl	8003bba <USBH_LL_Stop>
 8003398:	7921      	ldrb	r1, [r4, #4]
 800339a:	4620      	mov	r0, r4
 800339c:	f000 fb04 	bl	80039a8 <USBH_FreePipe>
 80033a0:	7961      	ldrb	r1, [r4, #5]
 80033a2:	4620      	mov	r0, r4
 80033a4:	f000 fb00 	bl	80039a8 <USBH_FreePipe>
 80033a8:	4628      	mov	r0, r5
 80033aa:	bd38      	pop	{r3, r4, r5, pc}

080033ac <USBH_CtlReq>:
 80033ac:	b573      	push	{r0, r1, r4, r5, r6, lr}
 80033ae:	7885      	ldrb	r5, [r0, #2]
 80033b0:	2d01      	cmp	r5, #1
 80033b2:	4604      	mov	r4, r0
 80033b4:	d003      	beq.n	80033be <USBH_CtlReq+0x12>
 80033b6:	2d02      	cmp	r5, #2
 80033b8:	d007      	beq.n	80033ca <USBH_CtlReq+0x1e>
 80033ba:	2501      	movs	r5, #1
 80033bc:	e019      	b.n	80033f2 <USBH_CtlReq+0x46>
 80033be:	6081      	str	r1, [r0, #8]
 80033c0:	8182      	strh	r2, [r0, #12]
 80033c2:	7605      	strb	r5, [r0, #24]
 80033c4:	2302      	movs	r3, #2
 80033c6:	70a3      	strb	r3, [r4, #2]
 80033c8:	e013      	b.n	80033f2 <USBH_CtlReq+0x46>
 80033ca:	7e06      	ldrb	r6, [r0, #24]
 80033cc:	1e73      	subs	r3, r6, #1
 80033ce:	2b0a      	cmp	r3, #10
 80033d0:	d8f3      	bhi.n	80033ba <USBH_CtlReq+0xe>
 80033d2:	e8df f003 	tbb	[pc, r3]
 80033d6:	1106      	.short	0x1106
 80033d8:	4e42392f 	.word	0x4e42392f
 80033dc:	8478675d 	.word	0x8478675d
 80033e0:	8c          	.byte	0x8c
 80033e1:	00          	.byte	0x00
 80033e2:	7942      	ldrb	r2, [r0, #5]
 80033e4:	f100 0110 	add.w	r1, r0, #16
 80033e8:	f000 fa54 	bl	8003894 <USBH_CtlSendSetup>
 80033ec:	2302      	movs	r3, #2
 80033ee:	7623      	strb	r3, [r4, #24]
 80033f0:	4635      	mov	r5, r6
 80033f2:	4628      	mov	r0, r5
 80033f4:	b002      	add	sp, #8
 80033f6:	bd70      	pop	{r4, r5, r6, pc}
 80033f8:	7941      	ldrb	r1, [r0, #5]
 80033fa:	f000 fbab 	bl	8003b54 <USBH_LL_GetURBState>
 80033fe:	2801      	cmp	r0, #1
 8003400:	4605      	mov	r5, r0
 8003402:	d111      	bne.n	8003428 <USBH_CtlReq+0x7c>
 8003404:	8ae2      	ldrh	r2, [r4, #22]
 8003406:	f994 3010 	ldrsb.w	r3, [r4, #16]
 800340a:	b13a      	cbz	r2, 800341c <USBH_CtlReq+0x70>
 800340c:	2b00      	cmp	r3, #0
 800340e:	da02      	bge.n	8003416 <USBH_CtlReq+0x6a>
 8003410:	2303      	movs	r3, #3
 8003412:	7623      	strb	r3, [r4, #24]
 8003414:	e7ed      	b.n	80033f2 <USBH_CtlReq+0x46>
 8003416:	2305      	movs	r3, #5
 8003418:	7623      	strb	r3, [r4, #24]
 800341a:	e7ce      	b.n	80033ba <USBH_CtlReq+0xe>
 800341c:	2b00      	cmp	r3, #0
 800341e:	da01      	bge.n	8003424 <USBH_CtlReq+0x78>
 8003420:	2309      	movs	r3, #9
 8003422:	e7f9      	b.n	8003418 <USBH_CtlReq+0x6c>
 8003424:	2307      	movs	r3, #7
 8003426:	e7f7      	b.n	8003418 <USBH_CtlReq+0x6c>
 8003428:	2804      	cmp	r0, #4
 800342a:	d001      	beq.n	8003430 <USBH_CtlReq+0x84>
 800342c:	2802      	cmp	r0, #2
 800342e:	d1c4      	bne.n	80033ba <USBH_CtlReq+0xe>
 8003430:	230b      	movs	r3, #11
 8003432:	e7f1      	b.n	8003418 <USBH_CtlReq+0x6c>
 8003434:	f8d0 33c4 	ldr.w	r3, [r0, #964]	; 0x3c4
 8003438:	81c3      	strh	r3, [r0, #14]
 800343a:	8982      	ldrh	r2, [r0, #12]
 800343c:	7903      	ldrb	r3, [r0, #4]
 800343e:	6881      	ldr	r1, [r0, #8]
 8003440:	f000 fa4f 	bl	80038e2 <USBH_CtlReceiveData>
 8003444:	2304      	movs	r3, #4
 8003446:	e7e7      	b.n	8003418 <USBH_CtlReq+0x6c>
 8003448:	7901      	ldrb	r1, [r0, #4]
 800344a:	f000 fb83 	bl	8003b54 <USBH_LL_GetURBState>
 800344e:	2801      	cmp	r0, #1
 8003450:	d0e6      	beq.n	8003420 <USBH_CtlReq+0x74>
 8003452:	2805      	cmp	r0, #5
 8003454:	d035      	beq.n	80034c2 <USBH_CtlReq+0x116>
 8003456:	2804      	cmp	r0, #4
 8003458:	e7e9      	b.n	800342e <USBH_CtlReq+0x82>
 800345a:	2501      	movs	r5, #1
 800345c:	9500      	str	r5, [sp, #0]
 800345e:	7943      	ldrb	r3, [r0, #5]
 8003460:	8982      	ldrh	r2, [r0, #12]
 8003462:	6881      	ldr	r1, [r0, #8]
 8003464:	f000 fa26 	bl	80038b4 <USBH_CtlSendData>
 8003468:	f8d4 33c4 	ldr.w	r3, [r4, #964]	; 0x3c4
 800346c:	81e3      	strh	r3, [r4, #14]
 800346e:	2306      	movs	r3, #6
 8003470:	e7cf      	b.n	8003412 <USBH_CtlReq+0x66>
 8003472:	7941      	ldrb	r1, [r0, #5]
 8003474:	f000 fb6e 	bl	8003b54 <USBH_LL_GetURBState>
 8003478:	2801      	cmp	r0, #1
 800347a:	d0d3      	beq.n	8003424 <USBH_CtlReq+0x78>
 800347c:	2805      	cmp	r0, #5
 800347e:	d020      	beq.n	80034c2 <USBH_CtlReq+0x116>
 8003480:	2802      	cmp	r0, #2
 8003482:	d0c8      	beq.n	8003416 <USBH_CtlReq+0x6a>
 8003484:	2804      	cmp	r0, #4
 8003486:	d198      	bne.n	80033ba <USBH_CtlReq+0xe>
 8003488:	230b      	movs	r3, #11
 800348a:	7623      	strb	r3, [r4, #24]
 800348c:	2301      	movs	r3, #1
 800348e:	e79a      	b.n	80033c6 <USBH_CtlReq+0x1a>
 8003490:	2200      	movs	r2, #0
 8003492:	7903      	ldrb	r3, [r0, #4]
 8003494:	4611      	mov	r1, r2
 8003496:	f000 fa24 	bl	80038e2 <USBH_CtlReceiveData>
 800349a:	f8d4 33c4 	ldr.w	r3, [r4, #964]	; 0x3c4
 800349e:	81e3      	strh	r3, [r4, #14]
 80034a0:	2308      	movs	r3, #8
 80034a2:	e7b9      	b.n	8003418 <USBH_CtlReq+0x6c>
 80034a4:	7901      	ldrb	r1, [r0, #4]
 80034a6:	f000 fb55 	bl	8003b54 <USBH_LL_GetURBState>
 80034aa:	2801      	cmp	r0, #1
 80034ac:	d104      	bne.n	80034b8 <USBH_CtlReq+0x10c>
 80034ae:	2500      	movs	r5, #0
 80034b0:	2301      	movs	r3, #1
 80034b2:	70a3      	strb	r3, [r4, #2]
 80034b4:	2300      	movs	r3, #0
 80034b6:	e7ac      	b.n	8003412 <USBH_CtlReq+0x66>
 80034b8:	2804      	cmp	r0, #4
 80034ba:	d0b9      	beq.n	8003430 <USBH_CtlReq+0x84>
 80034bc:	2805      	cmp	r0, #5
 80034be:	f47f af7c 	bne.w	80033ba <USBH_CtlReq+0xe>
 80034c2:	2503      	movs	r5, #3
 80034c4:	e7f4      	b.n	80034b0 <USBH_CtlReq+0x104>
 80034c6:	2501      	movs	r5, #1
 80034c8:	9500      	str	r5, [sp, #0]
 80034ca:	2200      	movs	r2, #0
 80034cc:	7943      	ldrb	r3, [r0, #5]
 80034ce:	4611      	mov	r1, r2
 80034d0:	f000 f9f0 	bl	80038b4 <USBH_CtlSendData>
 80034d4:	f8d4 33c4 	ldr.w	r3, [r4, #964]	; 0x3c4
 80034d8:	81e3      	strh	r3, [r4, #14]
 80034da:	230a      	movs	r3, #10
 80034dc:	e799      	b.n	8003412 <USBH_CtlReq+0x66>
 80034de:	7941      	ldrb	r1, [r0, #5]
 80034e0:	f000 fb38 	bl	8003b54 <USBH_LL_GetURBState>
 80034e4:	2801      	cmp	r0, #1
 80034e6:	d0e2      	beq.n	80034ae <USBH_CtlReq+0x102>
 80034e8:	2802      	cmp	r0, #2
 80034ea:	d1b4      	bne.n	8003456 <USBH_CtlReq+0xaa>
 80034ec:	e798      	b.n	8003420 <USBH_CtlReq+0x74>
 80034ee:	7e43      	ldrb	r3, [r0, #25]
 80034f0:	3301      	adds	r3, #1
 80034f2:	b2db      	uxtb	r3, r3
 80034f4:	2b02      	cmp	r3, #2
 80034f6:	7643      	strb	r3, [r0, #25]
 80034f8:	d803      	bhi.n	8003502 <USBH_CtlReq+0x156>
 80034fa:	2501      	movs	r5, #1
 80034fc:	7605      	strb	r5, [r0, #24]
 80034fe:	7085      	strb	r5, [r0, #2]
 8003500:	e777      	b.n	80033f2 <USBH_CtlReq+0x46>
 8003502:	f8d0 33d4 	ldr.w	r3, [r0, #980]	; 0x3d4
 8003506:	2106      	movs	r1, #6
 8003508:	2600      	movs	r6, #0
 800350a:	4798      	blx	r3
 800350c:	7961      	ldrb	r1, [r4, #5]
 800350e:	7666      	strb	r6, [r4, #25]
 8003510:	4620      	mov	r0, r4
 8003512:	f000 fa49 	bl	80039a8 <USBH_FreePipe>
 8003516:	7921      	ldrb	r1, [r4, #4]
 8003518:	4620      	mov	r0, r4
 800351a:	f000 fa45 	bl	80039a8 <USBH_FreePipe>
 800351e:	7026      	strb	r6, [r4, #0]
 8003520:	e7b4      	b.n	800348c <USBH_CtlReq+0xe0>

08003522 <USBH_GetDescriptor>:
 8003522:	b430      	push	{r4, r5}
 8003524:	460c      	mov	r4, r1
 8003526:	4619      	mov	r1, r3
 8003528:	7883      	ldrb	r3, [r0, #2]
 800352a:	f8bd 5008 	ldrh.w	r5, [sp, #8]
 800352e:	2b01      	cmp	r3, #1
 8003530:	d10f      	bne.n	8003552 <USBH_GetDescriptor+0x30>
 8003532:	f064 047f 	orn	r4, r4, #127	; 0x7f
 8003536:	7404      	strb	r4, [r0, #16]
 8003538:	f402 447f 	and.w	r4, r2, #65280	; 0xff00
 800353c:	2306      	movs	r3, #6
 800353e:	f5b4 7f40 	cmp.w	r4, #768	; 0x300
 8003542:	7443      	strb	r3, [r0, #17]
 8003544:	f240 4309 	movw	r3, #1033	; 0x409
 8003548:	bf18      	it	ne
 800354a:	2300      	movne	r3, #0
 800354c:	8242      	strh	r2, [r0, #18]
 800354e:	8283      	strh	r3, [r0, #20]
 8003550:	82c5      	strh	r5, [r0, #22]
 8003552:	462a      	mov	r2, r5
 8003554:	bc30      	pop	{r4, r5}
 8003556:	f7ff bf29 	b.w	80033ac <USBH_CtlReq>
	...

0800355c <USBH_Get_DevDesc>:
 800355c:	b537      	push	{r0, r1, r2, r4, r5, lr}
 800355e:	f500 738e 	add.w	r3, r0, #284	; 0x11c
 8003562:	460d      	mov	r5, r1
 8003564:	9100      	str	r1, [sp, #0]
 8003566:	f44f 7280 	mov.w	r2, #256	; 0x100
 800356a:	2100      	movs	r1, #0
 800356c:	4604      	mov	r4, r0
 800356e:	f7ff ffd8 	bl	8003522 <USBH_GetDescriptor>
 8003572:	2800      	cmp	r0, #0
 8003574:	d144      	bne.n	8003600 <USBH_Get_DevDesc+0xa4>
 8003576:	f894 311c 	ldrb.w	r3, [r4, #284]	; 0x11c
 800357a:	f884 3326 	strb.w	r3, [r4, #806]	; 0x326
 800357e:	f894 311d 	ldrb.w	r3, [r4, #285]	; 0x11d
 8003582:	f884 3327 	strb.w	r3, [r4, #807]	; 0x327
 8003586:	f8b4 311e 	ldrh.w	r3, [r4, #286]	; 0x11e
 800358a:	f8a4 3328 	strh.w	r3, [r4, #808]	; 0x328
 800358e:	f894 3120 	ldrb.w	r3, [r4, #288]	; 0x120
 8003592:	f884 332a 	strb.w	r3, [r4, #810]	; 0x32a
 8003596:	f894 3121 	ldrb.w	r3, [r4, #289]	; 0x121
 800359a:	f884 332b 	strb.w	r3, [r4, #811]	; 0x32b
 800359e:	f894 3122 	ldrb.w	r3, [r4, #290]	; 0x122
 80035a2:	f884 332c 	strb.w	r3, [r4, #812]	; 0x32c
 80035a6:	f894 3123 	ldrb.w	r3, [r4, #291]	; 0x123
 80035aa:	2b20      	cmp	r3, #32
 80035ac:	d82a      	bhi.n	8003604 <USBH_Get_DevDesc+0xa8>
 80035ae:	2b07      	cmp	r3, #7
 80035b0:	d92a      	bls.n	8003608 <USBH_Get_DevDesc+0xac>
 80035b2:	4a16      	ldr	r2, [pc, #88]	; (800360c <USBH_Get_DevDesc+0xb0>)
 80035b4:	f1a3 0108 	sub.w	r1, r3, #8
 80035b8:	b2c9      	uxtb	r1, r1
 80035ba:	40ca      	lsrs	r2, r1
 80035bc:	07d2      	lsls	r2, r2, #31
 80035be:	d523      	bpl.n	8003608 <USBH_Get_DevDesc+0xac>
 80035c0:	2d08      	cmp	r5, #8
 80035c2:	f884 332d 	strb.w	r3, [r4, #813]	; 0x32d
 80035c6:	d91b      	bls.n	8003600 <USBH_Get_DevDesc+0xa4>
 80035c8:	f8b4 3124 	ldrh.w	r3, [r4, #292]	; 0x124
 80035cc:	f8a4 332e 	strh.w	r3, [r4, #814]	; 0x32e
 80035d0:	f8b4 3126 	ldrh.w	r3, [r4, #294]	; 0x126
 80035d4:	f8a4 3330 	strh.w	r3, [r4, #816]	; 0x330
 80035d8:	f8b4 3128 	ldrh.w	r3, [r4, #296]	; 0x128
 80035dc:	f8a4 3332 	strh.w	r3, [r4, #818]	; 0x332
 80035e0:	f894 312a 	ldrb.w	r3, [r4, #298]	; 0x12a
 80035e4:	f884 3334 	strb.w	r3, [r4, #820]	; 0x334
 80035e8:	f894 312b 	ldrb.w	r3, [r4, #299]	; 0x12b
 80035ec:	f884 3335 	strb.w	r3, [r4, #821]	; 0x335
 80035f0:	f894 312c 	ldrb.w	r3, [r4, #300]	; 0x12c
 80035f4:	f884 3336 	strb.w	r3, [r4, #822]	; 0x336
 80035f8:	f894 312d 	ldrb.w	r3, [r4, #301]	; 0x12d
 80035fc:	f884 3337 	strb.w	r3, [r4, #823]	; 0x337
 8003600:	b003      	add	sp, #12
 8003602:	bd30      	pop	{r4, r5, pc}
 8003604:	2b40      	cmp	r3, #64	; 0x40
 8003606:	d0db      	beq.n	80035c0 <USBH_Get_DevDesc+0x64>
 8003608:	2340      	movs	r3, #64	; 0x40
 800360a:	e7d9      	b.n	80035c0 <USBH_Get_DevDesc+0x64>
 800360c:	01000101 	.word	0x01000101

08003610 <USBH_Get_CfgDesc>:
 8003610:	e92d 4ff0 	stmdb	sp!, {r4, r5, r6, r7, r8, r9, sl, fp, lr}
 8003614:	b087      	sub	sp, #28
 8003616:	f100 041c 	add.w	r4, r0, #28
 800361a:	460e      	mov	r6, r1
 800361c:	9100      	str	r1, [sp, #0]
 800361e:	4623      	mov	r3, r4
 8003620:	f44f 7200 	mov.w	r2, #512	; 0x200
 8003624:	2100      	movs	r1, #0
 8003626:	4605      	mov	r5, r0
 8003628:	f7ff ff7b 	bl	8003522 <USBH_GetDescriptor>
 800362c:	2800      	cmp	r0, #0
 800362e:	d16a      	bne.n	8003706 <USBH_Get_CfgDesc+0xf6>
 8003630:	7f6b      	ldrb	r3, [r5, #29]
 8003632:	f885 3339 	strb.w	r3, [r5, #825]	; 0x339
 8003636:	f895 3021 	ldrb.w	r3, [r5, #33]	; 0x21
 800363a:	f885 333d 	strb.w	r3, [r5, #829]	; 0x33d
 800363e:	f895 3022 	ldrb.w	r3, [r5, #34]	; 0x22
 8003642:	f8b5 e01e 	ldrh.w	lr, [r5, #30]
 8003646:	f885 333e 	strb.w	r3, [r5, #830]	; 0x33e
 800364a:	f895 3023 	ldrb.w	r3, [r5, #35]	; 0x23
 800364e:	f885 333f 	strb.w	r3, [r5, #831]	; 0x33f
 8003652:	f895 3024 	ldrb.w	r3, [r5, #36]	; 0x24
 8003656:	f885 3340 	strb.w	r3, [r5, #832]	; 0x340
 800365a:	f5be 7f80 	cmp.w	lr, #256	; 0x100
 800365e:	f04f 0309 	mov.w	r3, #9
 8003662:	bf28      	it	cs
 8003664:	f44f 7e80 	movcs.w	lr, #256	; 0x100
 8003668:	f895 a020 	ldrb.w	sl, [r5, #32]
 800366c:	f8a5 e33a 	strh.w	lr, [r5, #826]	; 0x33a
 8003670:	429e      	cmp	r6, r3
 8003672:	f885 a33c 	strb.w	sl, [r5, #828]	; 0x33c
 8003676:	f885 3338 	strb.w	r3, [r5, #824]	; 0x338
 800367a:	d944      	bls.n	8003706 <USBH_Get_CfgDesc+0xf6>
 800367c:	462a      	mov	r2, r5
 800367e:	4684      	mov	ip, r0
 8003680:	fa5f f68c 	uxtb.w	r6, ip
 8003684:	f1bc 0f02 	cmp.w	ip, #2
 8003688:	d03d      	beq.n	8003706 <USBH_Get_CfgDesc+0xf6>
 800368a:	459e      	cmp	lr, r3
 800368c:	d806      	bhi.n	800369c <USBH_Get_CfgDesc+0x8c>
 800368e:	4653      	mov	r3, sl
 8003690:	2b02      	cmp	r3, #2
 8003692:	bf28      	it	cs
 8003694:	2302      	movcs	r3, #2
 8003696:	429e      	cmp	r6, r3
 8003698:	d235      	bcs.n	8003706 <USBH_Get_CfgDesc+0xf6>
 800369a:	e033      	b.n	8003704 <USBH_Get_CfgDesc+0xf4>
 800369c:	7821      	ldrb	r1, [r4, #0]
 800369e:	440c      	add	r4, r1
 80036a0:	440b      	add	r3, r1
 80036a2:	7861      	ldrb	r1, [r4, #1]
 80036a4:	2904      	cmp	r1, #4
 80036a6:	b29b      	uxth	r3, r3
 80036a8:	d1ec      	bne.n	8003684 <USBH_Get_CfgDesc+0x74>
 80036aa:	7821      	ldrb	r1, [r4, #0]
 80036ac:	2909      	cmp	r1, #9
 80036ae:	bf1c      	itt	ne
 80036b0:	2109      	movne	r1, #9
 80036b2:	7021      	strbne	r1, [r4, #0]
 80036b4:	7821      	ldrb	r1, [r4, #0]
 80036b6:	f882 1342 	strb.w	r1, [r2, #834]	; 0x342
 80036ba:	7861      	ldrb	r1, [r4, #1]
 80036bc:	f882 1343 	strb.w	r1, [r2, #835]	; 0x343
 80036c0:	78a1      	ldrb	r1, [r4, #2]
 80036c2:	f882 1344 	strb.w	r1, [r2, #836]	; 0x344
 80036c6:	78e1      	ldrb	r1, [r4, #3]
 80036c8:	f882 1345 	strb.w	r1, [r2, #837]	; 0x345
 80036cc:	7921      	ldrb	r1, [r4, #4]
 80036ce:	f882 1346 	strb.w	r1, [r2, #838]	; 0x346
 80036d2:	9102      	str	r1, [sp, #8]
 80036d4:	7961      	ldrb	r1, [r4, #5]
 80036d6:	f882 1347 	strb.w	r1, [r2, #839]	; 0x347
 80036da:	9103      	str	r1, [sp, #12]
 80036dc:	79a1      	ldrb	r1, [r4, #6]
 80036de:	f882 1348 	strb.w	r1, [r2, #840]	; 0x348
 80036e2:	9104      	str	r1, [sp, #16]
 80036e4:	79e1      	ldrb	r1, [r4, #7]
 80036e6:	f882 1349 	strb.w	r1, [r2, #841]	; 0x349
 80036ea:	9105      	str	r1, [sp, #20]
 80036ec:	7a21      	ldrb	r1, [r4, #8]
 80036ee:	f882 134a 	strb.w	r1, [r2, #842]	; 0x34a
 80036f2:	211a      	movs	r1, #26
 80036f4:	2600      	movs	r6, #0
 80036f6:	fb01 fb0c 	mul.w	fp, r1, ip
 80036fa:	9902      	ldr	r1, [sp, #8]
 80036fc:	428e      	cmp	r6, r1
 80036fe:	d26a      	bcs.n	80037d6 <USBH_Get_CfgDesc+0x1c6>
 8003700:	459e      	cmp	lr, r3
 8003702:	d803      	bhi.n	800370c <USBH_Get_CfgDesc+0xfc>
 8003704:	2003      	movs	r0, #3
 8003706:	b007      	add	sp, #28
 8003708:	e8bd 8ff0 	ldmia.w	sp!, {r4, r5, r6, r7, r8, r9, sl, fp, pc}
 800370c:	7821      	ldrb	r1, [r4, #0]
 800370e:	440c      	add	r4, r1
 8003710:	440b      	add	r3, r1
 8003712:	7861      	ldrb	r1, [r4, #1]
 8003714:	2905      	cmp	r1, #5
 8003716:	b29b      	uxth	r3, r3
 8003718:	d1ef      	bne.n	80036fa <USBH_Get_CfgDesc+0xea>
 800371a:	9803      	ldr	r0, [sp, #12]
 800371c:	7821      	ldrb	r1, [r4, #0]
 800371e:	2801      	cmp	r0, #1
 8003720:	d148      	bne.n	80037b4 <USBH_Get_CfgDesc+0x1a4>
 8003722:	9804      	ldr	r0, [sp, #16]
 8003724:	2802      	cmp	r0, #2
 8003726:	d145      	bne.n	80037b4 <USBH_Get_CfgDesc+0x1a4>
 8003728:	9805      	ldr	r0, [sp, #20]
 800372a:	b920      	cbnz	r0, 8003736 <USBH_Get_CfgDesc+0x126>
 800372c:	2909      	cmp	r1, #9
 800372e:	d002      	beq.n	8003736 <USBH_Get_CfgDesc+0x126>
 8003730:	f04f 0109 	mov.w	r1, #9
 8003734:	7021      	strb	r1, [r4, #0]
 8003736:	f106 0801 	add.w	r8, r6, #1
 800373a:	eb0b 08c8 	add.w	r8, fp, r8, lsl #3
 800373e:	44a8      	add	r8, r5
 8003740:	7821      	ldrb	r1, [r4, #0]
 8003742:	f888 1344 	strb.w	r1, [r8, #836]	; 0x344
 8003746:	7861      	ldrb	r1, [r4, #1]
 8003748:	f888 1345 	strb.w	r1, [r8, #837]	; 0x345
 800374c:	78a1      	ldrb	r1, [r4, #2]
 800374e:	f888 1346 	strb.w	r1, [r8, #838]	; 0x346
 8003752:	78e7      	ldrb	r7, [r4, #3]
 8003754:	f888 7347 	strb.w	r7, [r8, #839]	; 0x347
 8003758:	88a0      	ldrh	r0, [r4, #4]
 800375a:	f8a8 0348 	strh.w	r0, [r8, #840]	; 0x348
 800375e:	79a1      	ldrb	r1, [r4, #6]
 8003760:	f888 134a 	strb.w	r1, [r8, #842]	; 0x34a
 8003764:	b358      	cbz	r0, 80037be <USBH_Get_CfgDesc+0x1ae>
 8003766:	f420 60ff 	bic.w	r0, r0, #2040	; 0x7f8
 800376a:	f020 0007 	bic.w	r0, r0, #7
 800376e:	f8a8 0348 	strh.w	r0, [r8, #840]	; 0x348
 8003772:	f8b4 9004 	ldrh.w	r9, [r4, #4]
 8003776:	f106 0801 	add.w	r8, r6, #1
 800377a:	f419 6fc0 	tst.w	r9, #1536	; 0x600
 800377e:	eb0b 08c8 	add.w	r8, fp, r8, lsl #3
 8003782:	bf0c      	ite	eq
 8003784:	f3c9 090a 	ubfxeq	r9, r9, #0, #11
 8003788:	f44f 7900 	movne.w	r9, #512	; 0x200
 800378c:	44a8      	add	r8, r5
 800378e:	ea40 0009 	orr.w	r0, r0, r9
 8003792:	f8a8 0348 	strh.w	r0, [r8, #840]	; 0x348
 8003796:	2000      	movs	r0, #0
 8003798:	f895 831d 	ldrb.w	r8, [r5, #797]	; 0x31d
 800379c:	f1b8 0f00 	cmp.w	r8, #0
 80037a0:	d10f      	bne.n	80037c2 <USBH_Get_CfgDesc+0x1b2>
 80037a2:	07ff      	lsls	r7, r7, #31
 80037a4:	d503      	bpl.n	80037ae <USBH_Get_CfgDesc+0x19e>
 80037a6:	3901      	subs	r1, #1
 80037a8:	290f      	cmp	r1, #15
 80037aa:	bf88      	it	hi
 80037ac:	2003      	movhi	r0, #3
 80037ae:	3601      	adds	r6, #1
 80037b0:	b2f6      	uxtb	r6, r6
 80037b2:	e7a2      	b.n	80036fa <USBH_Get_CfgDesc+0xea>
 80037b4:	2907      	cmp	r1, #7
 80037b6:	d0be      	beq.n	8003736 <USBH_Get_CfgDesc+0x126>
 80037b8:	f04f 0107 	mov.w	r1, #7
 80037bc:	e7ba      	b.n	8003734 <USBH_Get_CfgDesc+0x124>
 80037be:	2003      	movs	r0, #3
 80037c0:	e7ea      	b.n	8003798 <USBH_Get_CfgDesc+0x188>
 80037c2:	f007 0703 	and.w	r7, r7, #3
 80037c6:	2f01      	cmp	r7, #1
 80037c8:	d0ed      	beq.n	80037a6 <USBH_Get_CfgDesc+0x196>
 80037ca:	2f03      	cmp	r7, #3
 80037cc:	d1ef      	bne.n	80037ae <USBH_Get_CfgDesc+0x19e>
 80037ce:	2900      	cmp	r1, #0
 80037d0:	bf08      	it	eq
 80037d2:	2003      	moveq	r0, #3
 80037d4:	e7eb      	b.n	80037ae <USBH_Get_CfgDesc+0x19e>
 80037d6:	f10c 0c01 	add.w	ip, ip, #1
 80037da:	321a      	adds	r2, #26
 80037dc:	e750      	b.n	8003680 <USBH_Get_CfgDesc+0x70>

080037de <USBH_Get_StringDesc>:
 80037de:	b5f7      	push	{r0, r1, r2, r4, r5, r6, r7, lr}
 80037e0:	f500 768e 	add.w	r6, r0, #284	; 0x11c
 80037e4:	4615      	mov	r5, r2
 80037e6:	461f      	mov	r7, r3
 80037e8:	9300      	str	r3, [sp, #0]
 80037ea:	f441 7240 	orr.w	r2, r1, #768	; 0x300
 80037ee:	4633      	mov	r3, r6
 80037f0:	2100      	movs	r1, #0
 80037f2:	4604      	mov	r4, r0
 80037f4:	f7ff fe95 	bl	8003522 <USBH_GetDescriptor>
 80037f8:	b978      	cbnz	r0, 800381a <USBH_Get_StringDesc+0x3c>
 80037fa:	f894 311d 	ldrb.w	r3, [r4, #285]	; 0x11d
 80037fe:	2b03      	cmp	r3, #3
 8003800:	d10b      	bne.n	800381a <USBH_Get_StringDesc+0x3c>
 8003802:	f894 111c 	ldrb.w	r1, [r4, #284]	; 0x11c
 8003806:	3902      	subs	r1, #2
 8003808:	42b9      	cmp	r1, r7
 800380a:	bf28      	it	cs
 800380c:	4639      	movcs	r1, r7
 800380e:	b289      	uxth	r1, r1
 8003810:	4604      	mov	r4, r0
 8003812:	42a1      	cmp	r1, r4
 8003814:	d803      	bhi.n	800381e <USBH_Get_StringDesc+0x40>
 8003816:	2300      	movs	r3, #0
 8003818:	702b      	strb	r3, [r5, #0]
 800381a:	b003      	add	sp, #12
 800381c:	bdf0      	pop	{r4, r5, r6, r7, pc}
 800381e:	1933      	adds	r3, r6, r4
 8003820:	3402      	adds	r4, #2
 8003822:	789b      	ldrb	r3, [r3, #2]
 8003824:	f805 3b01 	strb.w	r3, [r5], #1
 8003828:	b2a4      	uxth	r4, r4
 800382a:	e7f2      	b.n	8003812 <USBH_Get_StringDesc+0x34>

0800382c <USBH_SetAddress>:
 800382c:	7883      	ldrb	r3, [r0, #2]
 800382e:	2b01      	cmp	r3, #1
 8003830:	d105      	bne.n	800383e <USBH_SetAddress+0x12>
 8003832:	f44f 63a0 	mov.w	r3, #1280	; 0x500
 8003836:	8203      	strh	r3, [r0, #16]
 8003838:	2300      	movs	r3, #0
 800383a:	8241      	strh	r1, [r0, #18]
 800383c:	6143      	str	r3, [r0, #20]
 800383e:	2200      	movs	r2, #0
 8003840:	4611      	mov	r1, r2
 8003842:	f7ff bdb3 	b.w	80033ac <USBH_CtlReq>

08003846 <USBH_SetCfg>:
 8003846:	7883      	ldrb	r3, [r0, #2]
 8003848:	2b01      	cmp	r3, #1
 800384a:	d105      	bne.n	8003858 <USBH_SetCfg+0x12>
 800384c:	f44f 6310 	mov.w	r3, #2304	; 0x900
 8003850:	8203      	strh	r3, [r0, #16]
 8003852:	2300      	movs	r3, #0
 8003854:	8241      	strh	r1, [r0, #18]
 8003856:	6143      	str	r3, [r0, #20]
 8003858:	2200      	movs	r2, #0
 800385a:	4611      	mov	r1, r2
 800385c:	f7ff bda6 	b.w	80033ac <USBH_CtlReq>

08003860 <USBH_SetFeature>:
 8003860:	7883      	ldrb	r3, [r0, #2]
 8003862:	2b01      	cmp	r3, #1
 8003864:	d105      	bne.n	8003872 <USBH_SetFeature+0x12>
 8003866:	f44f 7340 	mov.w	r3, #768	; 0x300
 800386a:	8203      	strh	r3, [r0, #16]
 800386c:	2300      	movs	r3, #0
 800386e:	8241      	strh	r1, [r0, #18]
 8003870:	6143      	str	r3, [r0, #20]
 8003872:	2200      	movs	r2, #0
 8003874:	4611      	mov	r1, r2
 8003876:	f7ff bd99 	b.w	80033ac <USBH_CtlReq>

0800387a <USBH_ClrFeature>:
 800387a:	7883      	ldrb	r3, [r0, #2]
 800387c:	2b01      	cmp	r3, #1
 800387e:	d105      	bne.n	800388c <USBH_ClrFeature+0x12>
 8003880:	f44f 7381 	mov.w	r3, #258	; 0x102
 8003884:	6103      	str	r3, [r0, #16]
 8003886:	2300      	movs	r3, #0
 8003888:	8281      	strh	r1, [r0, #20]
 800388a:	82c3      	strh	r3, [r0, #22]
 800388c:	2200      	movs	r2, #0
 800388e:	4611      	mov	r1, r2
 8003890:	f7ff bd8c 	b.w	80033ac <USBH_CtlReq>

08003894 <USBH_CtlSendSetup>:
 8003894:	b51f      	push	{r0, r1, r2, r3, r4, lr}
 8003896:	2400      	movs	r4, #0
 8003898:	460b      	mov	r3, r1
 800389a:	4611      	mov	r1, r2
 800389c:	2208      	movs	r2, #8
 800389e:	e9cd 2402 	strd	r2, r4, [sp, #8]
 80038a2:	e9cd 4300 	strd	r4, r3, [sp]
 80038a6:	4622      	mov	r2, r4
 80038a8:	4623      	mov	r3, r4
 80038aa:	f000 f9b4 	bl	8003c16 <USBH_LL_SubmitURB>
 80038ae:	4620      	mov	r0, r4
 80038b0:	b004      	add	sp, #16
 80038b2:	bd10      	pop	{r4, pc}

080038b4 <USBH_CtlSendData>:
 80038b4:	b530      	push	{r4, r5, lr}
 80038b6:	b085      	sub	sp, #20
 80038b8:	f890 531d 	ldrb.w	r5, [r0, #797]	; 0x31d
 80038bc:	460c      	mov	r4, r1
 80038be:	2d00      	cmp	r5, #0
 80038c0:	4619      	mov	r1, r3
 80038c2:	f89d 3020 	ldrb.w	r3, [sp, #32]
 80038c6:	9401      	str	r4, [sp, #4]
 80038c8:	bf18      	it	ne
 80038ca:	2300      	movne	r3, #0
 80038cc:	e9cd 2302 	strd	r2, r3, [sp, #8]
 80038d0:	2301      	movs	r3, #1
 80038d2:	9300      	str	r3, [sp, #0]
 80038d4:	2300      	movs	r3, #0
 80038d6:	461a      	mov	r2, r3
 80038d8:	f000 f99d 	bl	8003c16 <USBH_LL_SubmitURB>
 80038dc:	2000      	movs	r0, #0
 80038de:	b005      	add	sp, #20
 80038e0:	bd30      	pop	{r4, r5, pc}

080038e2 <USBH_CtlReceiveData>:
 80038e2:	b530      	push	{r4, r5, lr}
 80038e4:	2400      	movs	r4, #0
 80038e6:	b085      	sub	sp, #20
 80038e8:	e9cd 2402 	strd	r2, r4, [sp, #8]
 80038ec:	460d      	mov	r5, r1
 80038ee:	2201      	movs	r2, #1
 80038f0:	4619      	mov	r1, r3
 80038f2:	9501      	str	r5, [sp, #4]
 80038f4:	9200      	str	r2, [sp, #0]
 80038f6:	4623      	mov	r3, r4
 80038f8:	f000 f98d 	bl	8003c16 <USBH_LL_SubmitURB>
 80038fc:	4620      	mov	r0, r4
 80038fe:	b005      	add	sp, #20
 8003900:	bd30      	pop	{r4, r5, pc}

08003902 <USBH_BulkSendData>:
 8003902:	b530      	push	{r4, r5, lr}
 8003904:	b085      	sub	sp, #20
 8003906:	f890 531d 	ldrb.w	r5, [r0, #797]	; 0x31d
 800390a:	460c      	mov	r4, r1
 800390c:	2d00      	cmp	r5, #0
 800390e:	4619      	mov	r1, r3
 8003910:	f89d 3020 	ldrb.w	r3, [sp, #32]
 8003914:	9401      	str	r4, [sp, #4]
 8003916:	bf18      	it	ne
 8003918:	2300      	movne	r3, #0
 800391a:	e9cd 2302 	strd	r2, r3, [sp, #8]
 800391e:	2301      	movs	r3, #1
 8003920:	9300      	str	r3, [sp, #0]
 8003922:	2200      	movs	r2, #0
 8003924:	2302      	movs	r3, #2
 8003926:	f000 f976 	bl	8003c16 <USBH_LL_SubmitURB>
 800392a:	2000      	movs	r0, #0
 800392c:	b005      	add	sp, #20
 800392e:	bd30      	pop	{r4, r5, pc}

08003930 <USBH_BulkReceiveData>:
 8003930:	b530      	push	{r4, r5, lr}
 8003932:	2400      	movs	r4, #0
 8003934:	b085      	sub	sp, #20
 8003936:	e9cd 2402 	strd	r2, r4, [sp, #8]
 800393a:	460d      	mov	r5, r1
 800393c:	2201      	movs	r2, #1
 800393e:	4619      	mov	r1, r3
 8003940:	9501      	str	r5, [sp, #4]
 8003942:	9200      	str	r2, [sp, #0]
 8003944:	2302      	movs	r3, #2
 8003946:	f000 f966 	bl	8003c16 <USBH_LL_SubmitURB>
 800394a:	4620      	mov	r0, r4
 800394c:	b005      	add	sp, #20
 800394e:	bd30      	pop	{r4, r5, pc}

08003950 <USBH_OpenPipe>:
 8003950:	b51f      	push	{r0, r1, r2, r3, r4, lr}
 8003952:	f8bd 4020 	ldrh.w	r4, [sp, #32]
 8003956:	9402      	str	r4, [sp, #8]
 8003958:	f89d 401c 	ldrb.w	r4, [sp, #28]
 800395c:	9401      	str	r4, [sp, #4]
 800395e:	f89d 4018 	ldrb.w	r4, [sp, #24]
 8003962:	9400      	str	r4, [sp, #0]
 8003964:	f000 f93b 	bl	8003bde <USBH_LL_OpenPipe>
 8003968:	2000      	movs	r0, #0
 800396a:	b004      	add	sp, #16
 800396c:	bd10      	pop	{r4, pc}

0800396e <USBH_ClosePipe>:
 800396e:	b508      	push	{r3, lr}
 8003970:	f000 f948 	bl	8003c04 <USBH_LL_ClosePipe>
 8003974:	2000      	movs	r0, #0
 8003976:	bd08      	pop	{r3, pc}

08003978 <USBH_AllocPipe>:
 8003978:	b530      	push	{r4, r5, lr}
 800397a:	2300      	movs	r3, #0
 800397c:	f500 7460 	add.w	r4, r0, #896	; 0x380
 8003980:	f854 5f04 	ldr.w	r5, [r4, #4]!
 8003984:	042d      	lsls	r5, r5, #16
 8003986:	b2da      	uxtb	r2, r3
 8003988:	d408      	bmi.n	800399c <USBH_AllocPipe+0x24>
 800398a:	eb00 0083 	add.w	r0, r0, r3, lsl #2
 800398e:	f441 4100 	orr.w	r1, r1, #32768	; 0x8000
 8003992:	b292      	uxth	r2, r2
 8003994:	f8c0 1384 	str.w	r1, [r0, #900]	; 0x384
 8003998:	b2d0      	uxtb	r0, r2
 800399a:	bd30      	pop	{r4, r5, pc}
 800399c:	3301      	adds	r3, #1
 800399e:	2b10      	cmp	r3, #16
 80039a0:	d1ee      	bne.n	8003980 <USBH_AllocPipe+0x8>
 80039a2:	f64f 72ff 	movw	r2, #65535	; 0xffff
 80039a6:	e7f7      	b.n	8003998 <USBH_AllocPipe+0x20>

080039a8 <USBH_FreePipe>:
 80039a8:	290f      	cmp	r1, #15
 80039aa:	bf9f      	itttt	ls
 80039ac:	eb00 0081 	addls.w	r0, r0, r1, lsl #2
 80039b0:	f8d0 3384 	ldrls.w	r3, [r0, #900]	; 0x384
 80039b4:	f3c3 030e 	ubfxls	r3, r3, #0, #15
 80039b8:	f8c0 3384 	strls.w	r3, [r0, #900]	; 0x384
 80039bc:	2000      	movs	r0, #0
 80039be:	4770      	bx	lr

080039c0 <USBH_UserProcess>:
 80039c0:	2904      	cmp	r1, #4
 80039c2:	d00a      	beq.n	80039da <USBH_UserProcess+0x1a>
 80039c4:	2905      	cmp	r1, #5
 80039c6:	d004      	beq.n	80039d2 <USBH_UserProcess+0x12>
 80039c8:	2902      	cmp	r1, #2
 80039ca:	d105      	bne.n	80039d8 <USBH_UserProcess+0x18>
 80039cc:	4b04      	ldr	r3, [pc, #16]	; (80039e0 <USBH_UserProcess+0x20>)
 80039ce:	7019      	strb	r1, [r3, #0]
 80039d0:	4770      	bx	lr
 80039d2:	4b03      	ldr	r3, [pc, #12]	; (80039e0 <USBH_UserProcess+0x20>)
 80039d4:	2203      	movs	r2, #3
 80039d6:	701a      	strb	r2, [r3, #0]
 80039d8:	4770      	bx	lr
 80039da:	4b01      	ldr	r3, [pc, #4]	; (80039e0 <USBH_UserProcess+0x20>)
 80039dc:	2201      	movs	r2, #1
 80039de:	e7fa      	b.n	80039d6 <USBH_UserProcess+0x16>
 80039e0:	20000194 	.word	0x20000194

080039e4 <MX_USB_HOST_Init>:
 80039e4:	b508      	push	{r3, lr}
 80039e6:	490c      	ldr	r1, [pc, #48]	; (8003a18 <MX_USB_HOST_Init+0x34>)
 80039e8:	480c      	ldr	r0, [pc, #48]	; (8003a1c <MX_USB_HOST_Init+0x38>)
 80039ea:	2201      	movs	r2, #1
 80039ec:	f7ff fa5f 	bl	8002eae <USBH_Init>
 80039f0:	b108      	cbz	r0, 80039f6 <MX_USB_HOST_Init+0x12>
 80039f2:	f7fc fed1 	bl	8000798 <Error_Handler>
 80039f6:	490a      	ldr	r1, [pc, #40]	; (8003a20 <MX_USB_HOST_Init+0x3c>)
 80039f8:	4808      	ldr	r0, [pc, #32]	; (8003a1c <MX_USB_HOST_Init+0x38>)
 80039fa:	f7ff fa75 	bl	8002ee8 <USBH_RegisterClass>
 80039fe:	b108      	cbz	r0, 8003a04 <MX_USB_HOST_Init+0x20>
 8003a00:	f7fc feca 	bl	8000798 <Error_Handler>
 8003a04:	4805      	ldr	r0, [pc, #20]	; (8003a1c <MX_USB_HOST_Init+0x38>)
 8003a06:	f7ff faa1 	bl	8002f4c <USBH_Start>
 8003a0a:	b118      	cbz	r0, 8003a14 <MX_USB_HOST_Init+0x30>
 8003a0c:	e8bd 4008 	ldmia.w	sp!, {r3, lr}
 8003a10:	f7fc bec2 	b.w	8000798 <Error_Handler>
 8003a14:	bd08      	pop	{r3, pc}
 8003a16:	bf00      	nop
 8003a18:	080039c1 	.word	0x080039c1
 8003a1c:	20000198 	.word	0x20000198
 8003a20:	2000000c 	.word	0x2000000c

08003a24 <MX_USB_HOST_Process>:
 8003a24:	4801      	ldr	r0, [pc, #4]	; (8003a2c <MX_USB_HOST_Process+0x8>)
 8003a26:	f7ff ba9b 	b.w	8002f60 <USBH_Process>
 8003a2a:	bf00      	nop
 8003a2c:	20000198 	.word	0x20000198

08003a30 <HAL_HCD_MspInit>:
 8003a30:	b530      	push	{r4, r5, lr}
 8003a32:	4604      	mov	r4, r0
 8003a34:	b089      	sub	sp, #36	; 0x24
 8003a36:	2214      	movs	r2, #20
 8003a38:	2100      	movs	r1, #0
 8003a3a:	a803      	add	r0, sp, #12
 8003a3c:	f000 f9c6 	bl	8003dcc <memset>
 8003a40:	6823      	ldr	r3, [r4, #0]
 8003a42:	f1b3 4fa0 	cmp.w	r3, #1342177280	; 0x50000000
 8003a46:	d135      	bne.n	8003ab4 <HAL_HCD_MspInit+0x84>
 8003a48:	4c1b      	ldr	r4, [pc, #108]	; (8003ab8 <HAL_HCD_MspInit+0x88>)
 8003a4a:	481c      	ldr	r0, [pc, #112]	; (8003abc <HAL_HCD_MspInit+0x8c>)
 8003a4c:	2500      	movs	r5, #0
 8003a4e:	9501      	str	r5, [sp, #4]
 8003a50:	6b23      	ldr	r3, [r4, #48]	; 0x30
 8003a52:	f043 0301 	orr.w	r3, r3, #1
 8003a56:	6323      	str	r3, [r4, #48]	; 0x30
 8003a58:	6b23      	ldr	r3, [r4, #48]	; 0x30
 8003a5a:	f003 0301 	and.w	r3, r3, #1
 8003a5e:	9301      	str	r3, [sp, #4]
 8003a60:	9b01      	ldr	r3, [sp, #4]
 8003a62:	a903      	add	r1, sp, #12
 8003a64:	f44f 7300 	mov.w	r3, #512	; 0x200
 8003a68:	9303      	str	r3, [sp, #12]
 8003a6a:	f7fd f8ad 	bl	8000bc8 <HAL_GPIO_Init>
 8003a6e:	f44f 52e0 	mov.w	r2, #7168	; 0x1c00
 8003a72:	2302      	movs	r3, #2
 8003a74:	e9cd 2303 	strd	r2, r3, [sp, #12]
 8003a78:	4810      	ldr	r0, [pc, #64]	; (8003abc <HAL_HCD_MspInit+0x8c>)
 8003a7a:	230a      	movs	r3, #10
 8003a7c:	a903      	add	r1, sp, #12
 8003a7e:	9307      	str	r3, [sp, #28]
 8003a80:	e9cd 5505 	strd	r5, r5, [sp, #20]
 8003a84:	f7fd f8a0 	bl	8000bc8 <HAL_GPIO_Init>
 8003a88:	6b63      	ldr	r3, [r4, #52]	; 0x34
 8003a8a:	f043 0380 	orr.w	r3, r3, #128	; 0x80
 8003a8e:	6363      	str	r3, [r4, #52]	; 0x34
 8003a90:	9502      	str	r5, [sp, #8]
 8003a92:	6c63      	ldr	r3, [r4, #68]	; 0x44
 8003a94:	f443 4380 	orr.w	r3, r3, #16384	; 0x4000
 8003a98:	6463      	str	r3, [r4, #68]	; 0x44
 8003a9a:	6c63      	ldr	r3, [r4, #68]	; 0x44
 8003a9c:	f403 4380 	and.w	r3, r3, #16384	; 0x4000
 8003aa0:	9302      	str	r3, [sp, #8]
 8003aa2:	2043      	movs	r0, #67	; 0x43
 8003aa4:	462a      	mov	r2, r5
 8003aa6:	4629      	mov	r1, r5
 8003aa8:	9b02      	ldr	r3, [sp, #8]
 8003aaa:	f7fd f839 	bl	8000b20 <HAL_NVIC_SetPriority>
 8003aae:	2043      	movs	r0, #67	; 0x43
 8003ab0:	f7fd f868 	bl	8000b84 <HAL_NVIC_EnableIRQ>
 8003ab4:	b009      	add	sp, #36	; 0x24
 8003ab6:	bd30      	pop	{r4, r5, pc}
 8003ab8:	40023800 	.word	0x40023800
 8003abc:	40020000 	.word	0x40020000

08003ac0 <HAL_HCD_SOF_Callback>:
 8003ac0:	f8d0 0300 	ldr.w	r0, [r0, #768]	; 0x300
 8003ac4:	f7ff bc3c 	b.w	8003340 <USBH_LL_IncTimer>

08003ac8 <HAL_HCD_Connect_Callback>:
 8003ac8:	f8d0 0300 	ldr.w	r0, [r0, #768]	; 0x300
 8003acc:	f7ff bc4e 	b.w	800336c <USBH_LL_Connect>

08003ad0 <HAL_HCD_Disconnect_Callback>:
 8003ad0:	f8d0 0300 	ldr.w	r0, [r0, #768]	; 0x300
 8003ad4:	f7ff bc54 	b.w	8003380 <USBH_LL_Disconnect>

08003ad8 <HAL_HCD_HC_NotifyURBChange_Callback>:
 8003ad8:	4770      	bx	lr

08003ada <HAL_HCD_PortEnabled_Callback>:
 8003ada:	f8d0 0300 	ldr.w	r0, [r0, #768]	; 0x300
 8003ade:	f7ff bc3d 	b.w	800335c <USBH_LL_PortEnabled>

08003ae2 <HAL_HCD_PortDisabled_Callback>:
 8003ae2:	f8d0 0300 	ldr.w	r0, [r0, #768]	; 0x300
 8003ae6:	f7ff bc3d 	b.w	8003364 <USBH_LL_PortDisabled>
	...

08003aec <USBH_LL_Init>:
 8003aec:	b510      	push	{r4, lr}
 8003aee:	f890 33cc 	ldrb.w	r3, [r0, #972]	; 0x3cc
 8003af2:	2b01      	cmp	r3, #1
 8003af4:	4604      	mov	r4, r0
 8003af6:	d11b      	bne.n	8003b30 <USBH_LL_Init+0x44>
 8003af8:	480e      	ldr	r0, [pc, #56]	; (8003b34 <USBH_LL_Init+0x48>)
 8003afa:	f8c4 03d0 	str.w	r0, [r4, #976]	; 0x3d0
 8003afe:	f04f 42a0 	mov.w	r2, #1342177280	; 0x50000000
 8003b02:	6002      	str	r2, [r0, #0]
 8003b04:	2208      	movs	r2, #8
 8003b06:	e9c0 2302 	strd	r2, r3, [r0, #8]
 8003b0a:	2300      	movs	r3, #0
 8003b0c:	2202      	movs	r2, #2
 8003b0e:	e9c0 2306 	strd	r2, r3, [r0, #24]
 8003b12:	f8c0 4300 	str.w	r4, [r0, #768]	; 0x300
 8003b16:	6103      	str	r3, [r0, #16]
 8003b18:	f7fd f986 	bl	8000e28 <HAL_HCD_Init>
 8003b1c:	b108      	cbz	r0, 8003b22 <USBH_LL_Init+0x36>
 8003b1e:	f7fc fe3b 	bl	8000798 <Error_Handler>
 8003b22:	4804      	ldr	r0, [pc, #16]	; (8003b34 <USBH_LL_Init+0x48>)
 8003b24:	f7fd fd8b 	bl	800163e <HAL_HCD_GetCurrentFrame>
 8003b28:	4601      	mov	r1, r0
 8003b2a:	4620      	mov	r0, r4
 8003b2c:	f7ff fc05 	bl	800333a <USBH_LL_SetTimer>
 8003b30:	2000      	movs	r0, #0
 8003b32:	bd10      	pop	{r4, pc}
 8003b34:	20000570 	.word	0x20000570

08003b38 <USBH_LL_GetSpeed>:
 8003b38:	b508      	push	{r3, lr}
 8003b3a:	f8d0 03d0 	ldr.w	r0, [r0, #976]	; 0x3d0
 8003b3e:	f7fd fd81 	bl	8001644 <HAL_HCD_GetCurrentSpeed>
 8003b42:	2803      	cmp	r0, #3
 8003b44:	bf28      	it	cs
 8003b46:	2001      	movcs	r0, #1
 8003b48:	b2c0      	uxtb	r0, r0
 8003b4a:	bd08      	pop	{r3, pc}

08003b4c <USBH_LL_GetLastXferSize>:
 8003b4c:	f8d0 03d0 	ldr.w	r0, [r0, #976]	; 0x3d0
 8003b50:	f7fd bd70 	b.w	8001634 <HAL_HCD_HC_GetXferCount>

08003b54 <USBH_LL_GetURBState>:
 8003b54:	f8d0 03d0 	ldr.w	r0, [r0, #976]	; 0x3d0
 8003b58:	f7fd bd66 	b.w	8001628 <HAL_HCD_HC_GetURBState>

08003b5c <USBH_LL_DriverVBUS>:
 8003b5c:	b508      	push	{r3, lr}
 8003b5e:	f890 33cc 	ldrb.w	r3, [r0, #972]	; 0x3cc
 8003b62:	2b01      	cmp	r3, #1
 8003b64:	d102      	bne.n	8003b6c <USBH_LL_DriverVBUS+0x10>
 8003b66:	4608      	mov	r0, r1
 8003b68:	f000 f86a 	bl	8003c40 <MX_DriverVbusFS>
 8003b6c:	20c8      	movs	r0, #200	; 0xc8
 8003b6e:	f7fc ffb1 	bl	8000ad4 <HAL_Delay>
 8003b72:	2000      	movs	r0, #0
 8003b74:	bd08      	pop	{r3, pc}

08003b76 <USBH_LL_SetToggle>:
 8003b76:	f8d0 33d0 	ldr.w	r3, [r0, #976]	; 0x3d0
 8003b7a:	202c      	movs	r0, #44	; 0x2c
 8003b7c:	fb00 3101 	mla	r1, r0, r1, r3
 8003b80:	f891 303b 	ldrb.w	r3, [r1, #59]	; 0x3b
 8003b84:	b11b      	cbz	r3, 8003b8e <USBH_LL_SetToggle+0x18>
 8003b86:	f881 2054 	strb.w	r2, [r1, #84]	; 0x54
 8003b8a:	2000      	movs	r0, #0
 8003b8c:	4770      	bx	lr
 8003b8e:	f881 2055 	strb.w	r2, [r1, #85]	; 0x55
 8003b92:	e7fa      	b.n	8003b8a <USBH_LL_SetToggle+0x14>

08003b94 <USBH_Delay>:
 8003b94:	f7fc bf9e 	b.w	8000ad4 <HAL_Delay>

08003b98 <USBH_Get_USB_Status>:
 8003b98:	2803      	cmp	r0, #3
 8003b9a:	bf9a      	itte	ls
 8003b9c:	4b01      	ldrls	r3, [pc, #4]	; (8003ba4 <USBH_Get_USB_Status+0xc>)
 8003b9e:	5c18      	ldrbls	r0, [r3, r0]
 8003ba0:	2002      	movhi	r0, #2
 8003ba2:	4770      	bx	lr
 8003ba4:	08003f20 	.word	0x08003f20

08003ba8 <USBH_LL_Start>:
 8003ba8:	b508      	push	{r3, lr}
 8003baa:	f8d0 03d0 	ldr.w	r0, [r0, #976]	; 0x3d0
 8003bae:	f7fd fd11 	bl	80015d4 <HAL_HCD_Start>
 8003bb2:	e8bd 4008 	ldmia.w	sp!, {r3, lr}
 8003bb6:	f7ff bfef 	b.w	8003b98 <USBH_Get_USB_Status>

08003bba <USBH_LL_Stop>:
 8003bba:	b508      	push	{r3, lr}
 8003bbc:	f8d0 03d0 	ldr.w	r0, [r0, #976]	; 0x3d0
 8003bc0:	f7fd fd1d 	bl	80015fe <HAL_HCD_Stop>
 8003bc4:	e8bd 4008 	ldmia.w	sp!, {r3, lr}
 8003bc8:	f7ff bfe6 	b.w	8003b98 <USBH_Get_USB_Status>

08003bcc <USBH_LL_ResetPort>:
 8003bcc:	b508      	push	{r3, lr}
 8003bce:	f8d0 03d0 	ldr.w	r0, [r0, #976]	; 0x3d0
 8003bd2:	f7fd fd26 	bl	8001622 <HAL_HCD_ResetPort>
 8003bd6:	e8bd 4008 	ldmia.w	sp!, {r3, lr}
 8003bda:	f7ff bfdd 	b.w	8003b98 <USBH_Get_USB_Status>

08003bde <USBH_LL_OpenPipe>:
 8003bde:	b57f      	push	{r0, r1, r2, r3, r4, r5, r6, lr}
 8003be0:	f89d 5024 	ldrb.w	r5, [sp, #36]	; 0x24
 8003be4:	f8bd 6028 	ldrh.w	r6, [sp, #40]	; 0x28
 8003be8:	f89d 4020 	ldrb.w	r4, [sp, #32]
 8003bec:	9400      	str	r4, [sp, #0]
 8003bee:	e9cd 5601 	strd	r5, r6, [sp, #4]
 8003bf2:	f8d0 03d0 	ldr.w	r0, [r0, #976]	; 0x3d0
 8003bf6:	f7fd f8cf 	bl	8000d98 <HAL_HCD_HC_Init>
 8003bfa:	b004      	add	sp, #16
 8003bfc:	e8bd 4070 	ldmia.w	sp!, {r4, r5, r6, lr}
 8003c00:	f7ff bfca 	b.w	8003b98 <USBH_Get_USB_Status>

08003c04 <USBH_LL_ClosePipe>:
 8003c04:	b508      	push	{r3, lr}
 8003c06:	f8d0 03d0 	ldr.w	r0, [r0, #976]	; 0x3d0
 8003c0a:	f7fd f8fb 	bl	8000e04 <HAL_HCD_HC_Halt>
 8003c0e:	e8bd 4008 	ldmia.w	sp!, {r3, lr}
 8003c12:	f7ff bfc1 	b.w	8003b98 <USBH_Get_USB_Status>

08003c16 <USBH_LL_SubmitURB>:
 8003c16:	b57f      	push	{r0, r1, r2, r3, r4, r5, r6, lr}
 8003c18:	f8bd 5028 	ldrh.w	r5, [sp, #40]	; 0x28
 8003c1c:	f89d 602c 	ldrb.w	r6, [sp, #44]	; 0x2c
 8003c20:	f89d 4020 	ldrb.w	r4, [sp, #32]
 8003c24:	e9cd 5602 	strd	r5, r6, [sp, #8]
 8003c28:	9d09      	ldr	r5, [sp, #36]	; 0x24
 8003c2a:	e9cd 4500 	strd	r4, r5, [sp]
 8003c2e:	f8d0 03d0 	ldr.w	r0, [r0, #976]	; 0x3d0
 8003c32:	f7fd f945 	bl	8000ec0 <HAL_HCD_HC_SubmitRequest>
 8003c36:	b004      	add	sp, #16
 8003c38:	e8bd 4070 	ldmia.w	sp!, {r4, r5, r6, lr}
 8003c3c:	f7ff bfac 	b.w	8003b98 <USBH_Get_USB_Status>

08003c40 <MX_DriverVbusFS>:
 8003c40:	1e02      	subs	r2, r0, #0
 8003c42:	bf18      	it	ne
 8003c44:	2201      	movne	r2, #1
 8003c46:	4802      	ldr	r0, [pc, #8]	; (8003c50 <MX_DriverVbusFS+0x10>)
 8003c48:	2101      	movs	r1, #1
 8003c4a:	f7fd b897 	b.w	8000d7c <HAL_GPIO_WritePin>
 8003c4e:	bf00      	nop
 8003c50:	40020800 	.word	0x40020800

08003c54 <malloc>:
 8003c54:	4b02      	ldr	r3, [pc, #8]	; (8003c60 <malloc+0xc>)
 8003c56:	4601      	mov	r1, r0
 8003c58:	6818      	ldr	r0, [r3, #0]
 8003c5a:	f000 b82b 	b.w	8003cb4 <_malloc_r>
 8003c5e:	bf00      	nop
 8003c60:	20000078 	.word	0x20000078

08003c64 <free>:
 8003c64:	4b02      	ldr	r3, [pc, #8]	; (8003c70 <free+0xc>)
 8003c66:	4601      	mov	r1, r0
 8003c68:	6818      	ldr	r0, [r3, #0]
 8003c6a:	f000 b8f3 	b.w	8003e54 <_free_r>
 8003c6e:	bf00      	nop
 8003c70:	20000078 	.word	0x20000078

08003c74 <sbrk_aligned>:
 8003c74:	b570      	push	{r4, r5, r6, lr}
 8003c76:	4e0e      	ldr	r6, [pc, #56]	; (8003cb0 <sbrk_aligned+0x3c>)
 8003c78:	460c      	mov	r4, r1
 8003c7a:	6831      	ldr	r1, [r6, #0]
 8003c7c:	4605      	mov	r5, r0
 8003c7e:	b911      	cbnz	r1, 8003c86 <sbrk_aligned+0x12>
 8003c80:	f000 f8ac 	bl	8003ddc <_sbrk_r>
 8003c84:	6030      	str	r0, [r6, #0]
 8003c86:	4621      	mov	r1, r4
 8003c88:	4628      	mov	r0, r5
 8003c8a:	f000 f8a7 	bl	8003ddc <_sbrk_r>
 8003c8e:	1c43      	adds	r3, r0, #1
 8003c90:	d00a      	beq.n	8003ca8 <sbrk_aligned+0x34>
 8003c92:	1cc4      	adds	r4, r0, #3
 8003c94:	f024 0403 	bic.w	r4, r4, #3
 8003c98:	42a0      	cmp	r0, r4
 8003c9a:	d007      	beq.n	8003cac <sbrk_aligned+0x38>
 8003c9c:	1a21      	subs	r1, r4, r0
 8003c9e:	4628      	mov	r0, r5
 8003ca0:	f000 f89c 	bl	8003ddc <_sbrk_r>
 8003ca4:	3001      	adds	r0, #1
 8003ca6:	d101      	bne.n	8003cac <sbrk_aligned+0x38>
 8003ca8:	f04f 34ff 	mov.w	r4, #4294967295
 8003cac:	4620      	mov	r0, r4
 8003cae:	bd70      	pop	{r4, r5, r6, pc}
 8003cb0:	20000878 	.word	0x20000878

08003cb4 <_malloc_r>:
 8003cb4:	e92d 43f8 	stmdb	sp!, {r3, r4, r5, r6, r7, r8, r9, lr}
 8003cb8:	1ccd      	adds	r5, r1, #3
 8003cba:	f025 0503 	bic.w	r5, r5, #3
 8003cbe:	3508      	adds	r5, #8
 8003cc0:	2d0c      	cmp	r5, #12
 8003cc2:	bf38      	it	cc
 8003cc4:	250c      	movcc	r5, #12
 8003cc6:	2d00      	cmp	r5, #0
 8003cc8:	4607      	mov	r7, r0
 8003cca:	db01      	blt.n	8003cd0 <_malloc_r+0x1c>
 8003ccc:	42a9      	cmp	r1, r5
 8003cce:	d905      	bls.n	8003cdc <_malloc_r+0x28>
 8003cd0:	230c      	movs	r3, #12
 8003cd2:	603b      	str	r3, [r7, #0]
 8003cd4:	2600      	movs	r6, #0
 8003cd6:	4630      	mov	r0, r6
 8003cd8:	e8bd 83f8 	ldmia.w	sp!, {r3, r4, r5, r6, r7, r8, r9, pc}
 8003cdc:	f8df 80d0 	ldr.w	r8, [pc, #208]	; 8003db0 <_malloc_r+0xfc>
 8003ce0:	f000 f868 	bl	8003db4 <__malloc_lock>
 8003ce4:	f8d8 3000 	ldr.w	r3, [r8]
 8003ce8:	461c      	mov	r4, r3
 8003cea:	bb5c      	cbnz	r4, 8003d44 <_malloc_r+0x90>
 8003cec:	4629      	mov	r1, r5
 8003cee:	4638      	mov	r0, r7
 8003cf0:	f7ff ffc0 	bl	8003c74 <sbrk_aligned>
 8003cf4:	1c43      	adds	r3, r0, #1
 8003cf6:	4604      	mov	r4, r0
 8003cf8:	d155      	bne.n	8003da6 <_malloc_r+0xf2>
 8003cfa:	f8d8 4000 	ldr.w	r4, [r8]
 8003cfe:	4626      	mov	r6, r4
 8003d00:	2e00      	cmp	r6, #0
 8003d02:	d145      	bne.n	8003d90 <_malloc_r+0xdc>
 8003d04:	2c00      	cmp	r4, #0
 8003d06:	d048      	beq.n	8003d9a <_malloc_r+0xe6>
 8003d08:	6823      	ldr	r3, [r4, #0]
 8003d0a:	4631      	mov	r1, r6
 8003d0c:	4638      	mov	r0, r7
 8003d0e:	eb04 0903 	add.w	r9, r4, r3
 8003d12:	f000 f863 	bl	8003ddc <_sbrk_r>
 8003d16:	4581      	cmp	r9, r0
 8003d18:	d13f      	bne.n	8003d9a <_malloc_r+0xe6>
 8003d1a:	6821      	ldr	r1, [r4, #0]
 8003d1c:	1a6d      	subs	r5, r5, r1
 8003d1e:	4629      	mov	r1, r5
 8003d20:	4638      	mov	r0, r7
 8003d22:	f7ff ffa7 	bl	8003c74 <sbrk_aligned>
 8003d26:	3001      	adds	r0, #1
 8003d28:	d037      	beq.n	8003d9a <_malloc_r+0xe6>
 8003d2a:	6823      	ldr	r3, [r4, #0]
 8003d2c:	442b      	add	r3, r5
 8003d2e:	6023      	str	r3, [r4, #0]
 8003d30:	f8d8 3000 	ldr.w	r3, [r8]
 8003d34:	2b00      	cmp	r3, #0
 8003d36:	d038      	beq.n	8003daa <_malloc_r+0xf6>
 8003d38:	685a      	ldr	r2, [r3, #4]
 8003d3a:	42a2      	cmp	r2, r4
 8003d3c:	d12b      	bne.n	8003d96 <_malloc_r+0xe2>
 8003d3e:	2200      	movs	r2, #0
 8003d40:	605a      	str	r2, [r3, #4]
 8003d42:	e00f      	b.n	8003d64 <_malloc_r+0xb0>
 8003d44:	6822      	ldr	r2, [r4, #0]
 8003d46:	1b52      	subs	r2, r2, r5
 8003d48:	d41f      	bmi.n	8003d8a <_malloc_r+0xd6>
 8003d4a:	2a0b      	cmp	r2, #11
 8003d4c:	d917      	bls.n	8003d7e <_malloc_r+0xca>
 8003d4e:	1961      	adds	r1, r4, r5
 8003d50:	42a3      	cmp	r3, r4
 8003d52:	6025      	str	r5, [r4, #0]
 8003d54:	bf18      	it	ne
 8003d56:	6059      	strne	r1, [r3, #4]
 8003d58:	6863      	ldr	r3, [r4, #4]
 8003d5a:	bf08      	it	eq
 8003d5c:	f8c8 1000 	streq.w	r1, [r8]
 8003d60:	5162      	str	r2, [r4, r5]
 8003d62:	604b      	str	r3, [r1, #4]
 8003d64:	4638      	mov	r0, r7
 8003d66:	f104 060b 	add.w	r6, r4, #11
 8003d6a:	f000 f829 	bl	8003dc0 <__malloc_unlock>
 8003d6e:	f026 0607 	bic.w	r6, r6, #7
 8003d72:	1d23      	adds	r3, r4, #4
 8003d74:	1af2      	subs	r2, r6, r3
 8003d76:	d0ae      	beq.n	8003cd6 <_malloc_r+0x22>
 8003d78:	1b9b      	subs	r3, r3, r6
 8003d7a:	50a3      	str	r3, [r4, r2]
 8003d7c:	e7ab      	b.n	8003cd6 <_malloc_r+0x22>
 8003d7e:	42a3      	cmp	r3, r4
 8003d80:	6862      	ldr	r2, [r4, #4]
 8003d82:	d1dd      	bne.n	8003d40 <_malloc_r+0x8c>
 8003d84:	f8c8 2000 	str.w	r2, [r8]
 8003d88:	e7ec      	b.n	8003d64 <_malloc_r+0xb0>
 8003d8a:	4623      	mov	r3, r4
 8003d8c:	6864      	ldr	r4, [r4, #4]
 8003d8e:	e7ac      	b.n	8003cea <_malloc_r+0x36>
 8003d90:	4634      	mov	r4, r6
 8003d92:	6876      	ldr	r6, [r6, #4]
 8003d94:	e7b4      	b.n	8003d00 <_malloc_r+0x4c>
 8003d96:	4613      	mov	r3, r2
 8003d98:	e7cc      	b.n	8003d34 <_malloc_r+0x80>
 8003d9a:	230c      	movs	r3, #12
 8003d9c:	603b      	str	r3, [r7, #0]
 8003d9e:	4638      	mov	r0, r7
 8003da0:	f000 f80e 	bl	8003dc0 <__malloc_unlock>
 8003da4:	e797      	b.n	8003cd6 <_malloc_r+0x22>
 8003da6:	6025      	str	r5, [r4, #0]
 8003da8:	e7dc      	b.n	8003d64 <_malloc_r+0xb0>
 8003daa:	605b      	str	r3, [r3, #4]
 8003dac:	deff      	udf	#255	; 0xff
 8003dae:	bf00      	nop
 8003db0:	20000874 	.word	0x20000874

08003db4 <__malloc_lock>:
 8003db4:	4801      	ldr	r0, [pc, #4]	; (8003dbc <__malloc_lock+0x8>)
 8003db6:	f000 b84b 	b.w	8003e50 <__retarget_lock_acquire_recursive>
 8003dba:	bf00      	nop
 8003dbc:	200009b8 	.word	0x200009b8

08003dc0 <__malloc_unlock>:
 8003dc0:	4801      	ldr	r0, [pc, #4]	; (8003dc8 <__malloc_unlock+0x8>)
 8003dc2:	f000 b846 	b.w	8003e52 <__retarget_lock_release_recursive>
 8003dc6:	bf00      	nop
 8003dc8:	200009b8 	.word	0x200009b8

08003dcc <memset>:
 8003dcc:	4402      	add	r2, r0
 8003dce:	4603      	mov	r3, r0
 8003dd0:	4293      	cmp	r3, r2
 8003dd2:	d100      	bne.n	8003dd6 <memset+0xa>
 8003dd4:	4770      	bx	lr
 8003dd6:	f803 1b01 	strb.w	r1, [r3], #1
 8003dda:	e7f9      	b.n	8003dd0 <memset+0x4>

08003ddc <_sbrk_r>:
 8003ddc:	b538      	push	{r3, r4, r5, lr}
 8003dde:	4d06      	ldr	r5, [pc, #24]	; (8003df8 <_sbrk_r+0x1c>)
 8003de0:	2300      	movs	r3, #0
 8003de2:	4604      	mov	r4, r0
 8003de4:	4608      	mov	r0, r1
 8003de6:	602b      	str	r3, [r5, #0]
 8003de8:	f7fc fdd0 	bl	800098c <_sbrk>
 8003dec:	1c43      	adds	r3, r0, #1
 8003dee:	d102      	bne.n	8003df6 <_sbrk_r+0x1a>
 8003df0:	682b      	ldr	r3, [r5, #0]
 8003df2:	b103      	cbz	r3, 8003df6 <_sbrk_r+0x1a>
 8003df4:	6023      	str	r3, [r4, #0]
 8003df6:	bd38      	pop	{r3, r4, r5, pc}
 8003df8:	200009b4 	.word	0x200009b4

08003dfc <__errno>:
 8003dfc:	4b01      	ldr	r3, [pc, #4]	; (8003e04 <__errno+0x8>)
 8003dfe:	6818      	ldr	r0, [r3, #0]
 8003e00:	4770      	bx	lr
 8003e02:	bf00      	nop
 8003e04:	20000078 	.word	0x20000078

08003e08 <__libc_init_array>:
 8003e08:	b570      	push	{r4, r5, r6, lr}
 8003e0a:	4d0d      	ldr	r5, [pc, #52]	; (8003e40 <__libc_init_array+0x38>)
 8003e0c:	4c0d      	ldr	r4, [pc, #52]	; (8003e44 <__libc_init_array+0x3c>)
 8003e0e:	1b64      	subs	r4, r4, r5
 8003e10:	10a4      	asrs	r4, r4, #2
 8003e12:	2600      	movs	r6, #0
 8003e14:	42a6      	cmp	r6, r4
 8003e16:	d109      	bne.n	8003e2c <__libc_init_array+0x24>
 8003e18:	4d0b      	ldr	r5, [pc, #44]	; (8003e48 <__libc_init_array+0x40>)
 8003e1a:	4c0c      	ldr	r4, [pc, #48]	; (8003e4c <__libc_init_array+0x44>)
 8003e1c:	f000 f866 	bl	8003eec <_init>
 8003e20:	1b64      	subs	r4, r4, r5
 8003e22:	10a4      	asrs	r4, r4, #2
 8003e24:	2600      	movs	r6, #0
 8003e26:	42a6      	cmp	r6, r4
 8003e28:	d105      	bne.n	8003e36 <__libc_init_array+0x2e>
 8003e2a:	bd70      	pop	{r4, r5, r6, pc}
 8003e2c:	f855 3b04 	ldr.w	r3, [r5], #4
 8003e30:	4798      	blx	r3
 8003e32:	3601      	adds	r6, #1
 8003e34:	e7ee      	b.n	8003e14 <__libc_init_array+0xc>
 8003e36:	f855 3b04 	ldr.w	r3, [r5], #4
 8003e3a:	4798      	blx	r3
 8003e3c:	3601      	adds	r6, #1
 8003e3e:	e7f2      	b.n	8003e26 <__libc_init_array+0x1e>
 8003e40:	08003f2c 	.word	0x08003f2c
 8003e44:	08003f2c 	.word	0x08003f2c
 8003e48:	08003f2c 	.word	0x08003f2c
 8003e4c:	08003f30 	.word	0x08003f30

08003e50 <__retarget_lock_acquire_recursive>:
 8003e50:	4770      	bx	lr

08003e52 <__retarget_lock_release_recursive>:
 8003e52:	4770      	bx	lr

08003e54 <_free_r>:
 8003e54:	b537      	push	{r0, r1, r2, r4, r5, lr}
 8003e56:	2900      	cmp	r1, #0
 8003e58:	d044      	beq.n	8003ee4 <_free_r+0x90>
 8003e5a:	f851 3c04 	ldr.w	r3, [r1, #-4]
 8003e5e:	9001      	str	r0, [sp, #4]
 8003e60:	2b00      	cmp	r3, #0
 8003e62:	f1a1 0404 	sub.w	r4, r1, #4
 8003e66:	bfb8      	it	lt
 8003e68:	18e4      	addlt	r4, r4, r3
 8003e6a:	f7ff ffa3 	bl	8003db4 <__malloc_lock>
 8003e6e:	4a1e      	ldr	r2, [pc, #120]	; (8003ee8 <_free_r+0x94>)
 8003e70:	9801      	ldr	r0, [sp, #4]
 8003e72:	6813      	ldr	r3, [r2, #0]
 8003e74:	b933      	cbnz	r3, 8003e84 <_free_r+0x30>
 8003e76:	6063      	str	r3, [r4, #4]
 8003e78:	6014      	str	r4, [r2, #0]
 8003e7a:	b003      	add	sp, #12
 8003e7c:	e8bd 4030 	ldmia.w	sp!, {r4, r5, lr}
 8003e80:	f7ff bf9e 	b.w	8003dc0 <__malloc_unlock>
 8003e84:	42a3      	cmp	r3, r4
 8003e86:	d908      	bls.n	8003e9a <_free_r+0x46>
 8003e88:	6825      	ldr	r5, [r4, #0]
 8003e8a:	1961      	adds	r1, r4, r5
 8003e8c:	428b      	cmp	r3, r1
 8003e8e:	bf01      	itttt	eq
 8003e90:	6819      	ldreq	r1, [r3, #0]
 8003e92:	685b      	ldreq	r3, [r3, #4]
 8003e94:	1949      	addeq	r1, r1, r5
 8003e96:	6021      	streq	r1, [r4, #0]
 8003e98:	e7ed      	b.n	8003e76 <_free_r+0x22>
 8003e9a:	461a      	mov	r2, r3
 8003e9c:	685b      	ldr	r3, [r3, #4]
 8003e9e:	b10b      	cbz	r3, 8003ea4 <_free_r+0x50>
 8003ea0:	42a3      	cmp	r3, r4
 8003ea2:	d9fa      	bls.n	8003e9a <_free_r+0x46>
 8003ea4:	6811      	ldr	r1, [r2, #0]
 8003ea6:	1855      	adds	r5, r2, r1
 8003ea8:	42a5      	cmp	r5, r4
 8003eaa:	d10b      	bne.n	8003ec4 <_free_r+0x70>
 8003eac:	6824      	ldr	r4, [r4, #0]
 8003eae:	4421      	add	r1, r4
 8003eb0:	1854      	adds	r4, r2, r1
 8003eb2:	42a3      	cmp	r3, r4
 8003eb4:	6011      	str	r1, [r2, #0]
 8003eb6:	d1e0      	bne.n	8003e7a <_free_r+0x26>
 8003eb8:	681c      	ldr	r4, [r3, #0]
 8003eba:	685b      	ldr	r3, [r3, #4]
 8003ebc:	6053      	str	r3, [r2, #4]
 8003ebe:	440c      	add	r4, r1
 8003ec0:	6014      	str	r4, [r2, #0]
 8003ec2:	e7da      	b.n	8003e7a <_free_r+0x26>
 8003ec4:	d902      	bls.n	8003ecc <_free_r+0x78>
 8003ec6:	230c      	movs	r3, #12
 8003ec8:	6003      	str	r3, [r0, #0]
 8003eca:	e7d6      	b.n	8003e7a <_free_r+0x26>
 8003ecc:	6825      	ldr	r5, [r4, #0]
 8003ece:	1961      	adds	r1, r4, r5
 8003ed0:	428b      	cmp	r3, r1
 8003ed2:	bf04      	itt	eq
 8003ed4:	6819      	ldreq	r1, [r3, #0]
 8003ed6:	685b      	ldreq	r3, [r3, #4]
 8003ed8:	6063      	str	r3, [r4, #4]
 8003eda:	bf04      	itt	eq
 8003edc:	1949      	addeq	r1, r1, r5
 8003ede:	6021      	streq	r1, [r4, #0]
 8003ee0:	6054      	str	r4, [r2, #4]
 8003ee2:	e7ca      	b.n	8003e7a <_free_r+0x26>
 8003ee4:	b003      	add	sp, #12
 8003ee6:	bd30      	pop	{r4, r5, pc}
 8003ee8:	20000874 	.word	0x20000874

08003eec <_init>:
 8003eec:	b5f8      	push	{r3, r4, r5, r6, r7, lr}
 8003eee:	bf00      	nop
 8003ef0:	bcf8      	pop	{r3, r4, r5, r6, r7}
 8003ef2:	bc08      	pop	{r3}
 8003ef4:	469e      	mov	lr, r3
 8003ef6:	4770      	bx	lr

08003ef8 <_fini>:
 8003ef8:	b5f8      	push	{r3, r4, r5, r6, r7, lr}
 8003efa:	bf00      	nop
 8003efc:	bcf8      	pop	{r3, r4, r5, r6, r7}
 8003efe:	bc08      	pop	{r3}
 8003f00:	469e      	mov	lr, r3
 8003f02:	4770      	bx	lr
